
Firmware.elf:     file format elf32-littleriscv
Firmware.elf
architecture: riscv:rv32, flags 0x00000112:
EXEC_P, HAS_SYMS, D_PAGED
start address 0x00001000

Program Header:
0x70000003 off    0x00025d1a vaddr 0x00000000 paddr 0x00000000 align 2**0
         filesz 0x00000027 memsz 0x00000000 flags r--
    LOAD off    0x00001000 vaddr 0x00001000 paddr 0x00001000 align 2**12
         filesz 0x00001ecc memsz 0x00001ecc flags r-x
    LOAD off    0x00003000 vaddr 0x20000000 paddr 0x00002ecc align 2**12
         filesz 0x00000038 memsz 0x0000031c flags rw-
    LOAD off    0x00000700 vaddr 0x20000700 paddr 0x20000700 align 2**12
         filesz 0x00000000 memsz 0x00000100 flags rw-

Sections:
Idx Name          Size      VMA       LMA       File off  Algn
  0 .bootloader   00000000  00000000  00000000  00003038  2**0
                  CONTENTS
  1 .init         000000a0  00001000  00001000  00001000  2**2
                  CONTENTS, ALLOC, LOAD, READONLY, CODE
  2 .highcodelalign 00000000  000010a0  000010a0  00003038  2**0
                  CONTENTS
  3 .highcode     00000000  20000000  20000000  00003038  2**0
                  CONTENTS
  4 .text         00001e2c  000010a0  000010a0  000010a0  2**2
                  CONTENTS, ALLOC, LOAD, READONLY, CODE
  5 .fini         00000000  00002ecc  00002ecc  00003038  2**0
                  CONTENTS, ALLOC, LOAD, CODE
  6 .dalign       00000000  20000000  20000000  00003038  2**0
                  CONTENTS
  7 .dlalign      00000000  00002ecc  00002ecc  00003038  2**0
                  CONTENTS
  8 .data         00000038  20000000  00002ecc  00003000  2**2
                  CONTENTS, ALLOC, LOAD, DATA
  9 .bss          000002e4  20000038  00002f04  00003038  2**2
                  ALLOC
 10 .stack        00000100  20000700  20000700  00003700  2**0
                  ALLOC
 11 .debug_info   0000b029  00000000  00000000  00003038  2**0
                  CONTENTS, READONLY, DEBUGGING, OCTETS
 12 .debug_abbrev 0000236f  00000000  00000000  0000e061  2**0
                  CONTENTS, READONLY, DEBUGGING, OCTETS
 13 .debug_loclists 00004016  00000000  00000000  000103d0  2**0
                  CONTENTS, READONLY, DEBUGGING, OCTETS
 14 .debug_aranges 00000ad8  00000000  00000000  000143e8  2**3
                  CONTENTS, READONLY, DEBUGGING, OCTETS
 15 .debug_rnglists 00000d16  00000000  00000000  00014ec0  2**0
                  CONTENTS, READONLY, DEBUGGING, OCTETS
 16 .debug_line   0000c910  00000000  00000000  00015bd6  2**0
                  CONTENTS, READONLY, DEBUGGING, OCTETS
 17 .debug_str    0000314c  00000000  00000000  000224e6  2**0
                  CONTENTS, READONLY, DEBUGGING, OCTETS
 18 .debug_line_str 000006b7  00000000  00000000  00025632  2**0
                  CONTENTS, READONLY, DEBUGGING, OCTETS
 19 .comment      00000031  00000000  00000000  00025ce9  2**0
                  CONTENTS, READONLY
 20 .riscv.attributes 00000027  00000000  00000000  00025d1a  2**0
                  CONTENTS, READONLY
 21 .debug_frame  00001884  00000000  00000000  00025d44  2**2
                  CONTENTS, READONLY, DEBUGGING, OCTETS
SYMBOL TABLE:
00000000 l    d  .bootloader	00000000 .bootloader
00001000 l    d  .init	00000000 .init
000010a0 l    d  .highcodelalign	00000000 .highcodelalign
20000000 l    d  .highcode	00000000 .highcode
000010a0 l    d  .text	00000000 .text
00002ecc l    d  .fini	00000000 .fini
20000000 l    d  .dalign	00000000 .dalign
00002ecc l    d  .dlalign	00000000 .dlalign
20000000 l    d  .data	00000000 .data
20000038 l    d  .bss	00000000 .bss
20000700 l    d  .stack	00000000 .stack
00000000 l    d  .debug_info	00000000 .debug_info
00000000 l    d  .debug_abbrev	00000000 .debug_abbrev
00000000 l    d  .debug_loclists	00000000 .debug_loclists
00000000 l    d  .debug_aranges	00000000 .debug_aranges
00000000 l    d  .debug_rnglists	00000000 .debug_rnglists
00000000 l    d  .debug_line	00000000 .debug_line
00000000 l    d  .debug_str	00000000 .debug_str
00000000 l    d  .debug_line_str	00000000 .debug_line_str
00000000 l    d  .comment	00000000 .comment
00000000 l    d  .riscv.attributes	00000000 .riscv.attributes
00000000 l    d  .debug_frame	00000000 .debug_frame
00000000 l    df *ABS*	00000000 startup_ch32v00x.o
00000000 l    df *ABS*	00000000 save-restore.o
00000000 l    df *ABS*	00000000 muldi3.o
00000000 l    df *ABS*	00000000 div.o
00000000 l    df *ABS*	00000000 lib_a-memcpy-asm.o
00000000 l    df *ABS*	00000000 lib_a-memmove.o
00000000 l    df *ABS*	00000000 lib_a-memset.o
00000000 l    df *ABS*	00000000 NRF24L01.c
00001196 l     F .text	00000008 nrf_cs_high
0000119e l     F .text	00000008 nrf_ce_low
000011a6 l     F .text	00000008 nrf_cs_low
000011ae l     F .text	00000030 nrf_spi_txrx
00000000 l    df *ABS*	00000000 data_transcode.c
000016d6 l     F .text	00000042 packetDataReset
00000000 l    df *ABS*	00000000 ch32v00x_it.c
00000000 l    df *ABS*	00000000 main.c
200000cd l     O .bss	00000001 cntBuffer_UART.3
200000cc l     O .bss	00000001 len_new_rx_data.2
200000ca l     O .bss	00000002 cntConnectTimeout.1
200000c8 l     O .bss	00000001 cntFailBlink.0
00002ebc l     O .text	00000010 radio_tx_cfg
00002ea8 l     O .text	00000013 radio_tx_addr
00002e98 l     O .text	00000010 radio_rx_cfg
00002e84 l     O .text	00000013 radio_rx_addr
00000000 l    df *ABS*	00000000 system_ch32v00x.c
00000000 l    df *ABS*	00000000 ch32v00x_dbgmcu.c
00000000 l    df *ABS*	00000000 ch32v00x_dma.c
00000000 l    df *ABS*	00000000 ch32v00x_exti.c
00000000 l    df *ABS*	00000000 ch32v00x_flash.c
00000000 l    df *ABS*	00000000 ch32v00x_gpio.c
00000000 l    df *ABS*	00000000 ch32v00x_misc.c
00000000 l    df *ABS*	00000000 ch32v00x_rcc.c
20000028 l     O .data	00000010 APBAHBPrescTable
20000014 l     O .data	00000014 ADCPrescTable
00000000 l    df *ABS*	00000000 ch32v00x_spi.c
00000000 l    df *ABS*	00000000 ch32v00x_tim.c
00000000 l    df *ABS*	00000000 ch32v00x_usart.c
00000000 l    df *ABS*	00000000 debug.c
2000031a l     O .bss	00000001 p_us
20000318 l     O .bss	00000002 p_ms
00000000 l    df *ABS*	00000000 lib_a-strlen.o
00001286 g     F .text	0000001c NRF24_ReadStatus
00002734 g     F .text	00000014 DMA_Cmd
000012fe g     F .text	00000194 NRF24_init
00002952 g     F .text	0000000c GPIO_ReadOutputDataBit
20000838 g       .data	00000000 __global_pointer$
000025ac  w      .text	00000000 TIM1_CC_IRQHandler
00002b3e g     F .text	00000004 SPI_I2S_SendData
000019d2 g     F .text	00000010 HardFault_Handler
00002824 g     F .text	00000056 FLASH_ProgramWord
000025ac  w      .text	00000000 SysTick_Handler
00002998 g     F .text	00000054 NVIC_Init
000025ac  w      .text	00000000 PVD_IRQHandler
00001160 g     F .text	00000026 memmove
00002b42 g     F .text	00000004 SPI_I2S_ReceiveData
000019d0 g     F .text	00000002 NMI_Handler
0000183c g     F .text	0000011e UART_decode
00002660 g     F .text	0000000a DBGMCU_GetCHIPID
000017fc g     F .text	00000040 crc16_cal
00002d34 g     F .text	0000000a USART_GetFlagStatus
20000038 g       .bss	00000000 _sbss
00001f74 g     F .text	00000078 system_reset_trigger
00000100 g       *ABS*	00000000 __stack_size
000026fc g     F .text	00000038 DMA_Init
000019e2 g     F .text	00000176 LinkPinout_Init
20000278 g     O .bss	00000085 buffers
000010aa g     F .text	0000000a .hidden __riscv_restore_2
0000114a g     F .text	00000016 memcpy
00002b9e g     F .text	00000018 TIM_Cmd
000010d4 g     F .text	0000002c .hidden __hidden___udivsi3
20000010 g     O .data	00000004 SystemCoreClock
00002d2c g     F .text	00000008 USART_ReceiveData
000010d4 g     F .text	0000002c .hidden __udivsi3
00002bc8 g     F .text	0000000c TIM_ClearFlag
000010a0 g       .init	00000000 _einit
00002bec g     F .text	0000000c TIM_ClearITPendingBit
0000287a g     F .text	0000001e FLASH_Unlock_Fast
00002ab4 g     F .text	0000001e RCC_APB2PeriphClockCmd
200001e8 g     O .bss	00000090 data_packets
000028dc g     F .text	00000076 GPIO_Init
20000314 g     O .bss	00000004 NVIC_Priority_Group
000025ac  w      .text	00000000 SPI1_IRQHandler
00002cc6 g     F .text	00000014 USART_Cmd
200001e0 g     O .bss	00000008 metadata
000010a0 g     F .text	0000000a .hidden __riscv_save_1
000010aa g     F .text	0000000a .hidden __riscv_restore_0
000025ac  w      .text	00000000 AWU_IRQHandler
00001e66 g     F .text	0000003a EXTI7_0_IRQHandler
00002d7a g     F .text	00000014 USART_ClearITPendingBit
00002ad2 g     F .text	0000001e RCC_APB1PeriphClockCmd
20000700 g       .stack	00000000 _heap_end
00002dc2 g     F .text	0000003a Delay_Us
0000121e g     F .text	00000034 NRF24_ReadRegister
00002b46 g     F .text	0000000a SPI_I2S_GetFlagStatus
00002a96 g     F .text	0000001e RCC_AHBPeriphClockCmd
000025ac  w      .text	00000000 DMA1_Channel4_IRQHandler
000025ac  w      .text	00000000 ADC1_IRQHandler
000027c4 g     F .text	0000000c EXTI_ClearITPendingBit
2000031c g       .bss	00000000 _ebss
00002d3e g     F .text	0000003c USART_GetITStatus
000025ac  w      .text	00000000 DMA1_Channel7_IRQHandler
00002d8e g     F .text	00000034 Delay_Init
0000295e g     F .text	00000004 GPIO_SetBits
00002966 g     F .text	0000000a GPIO_WriteBit
000011de g     F .text	00000018 NRF24_pin_config
00001100 g     F .text	00000008 .hidden __umodsi3
000025ac  w      .text	00000000 I2C1_EV_IRQHandler
00002bd4 g     F .text	00000018 TIM_GetITStatus
000029fe g     F .text	00000098 RCC_GetClocksFreq
000025ac  w      .text	00000000 DMA1_Channel6_IRQHandler
00002bf8 g     F .text	000000ce USART_Init
000025ac  w      .text	00000000 RCC_IRQHandler
00001bd6 g     F .text	000000c8 USART1_Init
000025ac  w      .text	00000000 TIM1_TRG_COM_IRQHandler
000025ac  w      .text	00000000 DMA1_Channel1_IRQHandler
00001000 g       .init	00000000 _start
000027d8 g     F .text	00000016 FLASH_GetStatus
20000000 g     O .data	00000010 AHBPrescTable
000027d0 g     F .text	00000008 FLASH_ClearFlag
00002804 g     F .text	00000020 FLASH_WaitForLastOperation
00002bb6 g     F .text	00000012 TIM_ITConfig
0000195a g     F .text	00000076 UART_encode
00002cda g     F .text	00000038 USART_ITConfig
20000000 g       .highcode	00000000 _highcode_vma_start
00002748 g     F .text	00000062 EXTI_Init
00001000 g       *ABS*	00000000 __app_offset
000010b4 g     F .text	00000014 .hidden __mulsi3
00002962 g     F .text	00000004 GPIO_ResetBits
000011f6 g     F .text	00000028 NRF24_SPI_Write
000028a6 g     F .text	00000036 FLASH_ErasePage_Fast
20000000 g       .dalign	00000000 _data_vma
00002970 g     F .text	00000022 GPIO_EXTILineConfig
00001718 g     F .text	000000a8 RF_decode
000027aa g     F .text	0000001a EXTI_GetITStatus
00001186 g     F .text	00000010 memset
000029ec g     F .text	00000012 RCC_AdjustHSICalibrationValue
00001fec g     F .text	00000480 main
000025ac  w      .text	00000000 DMA1_Channel5_IRQHandler
000010cc g     F .text	00000058 .hidden __divsi3
00002dfc g     F .text	0000003a Delay_Ms
20000038 g     O .bss	00000090 packets
00002b24 g     F .text	0000001a SPI_Cmd
000010a0 g       .highcodelalign	00000000 _highcode_lma
0000246c g     F .text	000000da SystemInit
00001000 g       .init	00000000 _sinit
000025ac  w      .text	00000000 DMA1_Channel3_IRQHandler
20000164 g     O .bss	0000007c radio1
000025ac  w      .text	00000000 TIM1_UP_IRQHandler
00001000 g       *ABS*	00000000 __bootloader_size
000017c0 g     F .text	0000003c RF_encode
000025ac  w      .text	00000000 WWDG_IRQHandler
00001ea0 g     F .text	00000074 TIM2_IRQHandler
200000d0 g     O .bss	00000018 hspi1
20000800 g       .stack	00000000 _eusrstack
000010a0 g     F .text	0000000a .hidden __riscv_save_2
000025ac  w      .text	00000000 SW_Handler
00001d82 g     F .text	00000044 UartSendBuffer
00002898 g     F .text	0000000e FLASH_Lock_Fast
200000e8 g     O .bss	0000007c radio2
00001252 g     F .text	00000034 NRF24_WriteRegister
000025ac  w      .text	00000000 TIM1_BRK_IRQHandler
00002d24 g     F .text	00000008 USART_SendData
00001492 g     F .text	0000009a NRF24_Send
20000038 g       .data	00000000 _edata
00001d14 g     F .text	0000006e SPI1_Init
2000031c g       .bss	00000000 _end
20000000 g       .highcode	00000000 _highcode_vma_end
00002b50 g     F .text	0000004e TIM_TimeBaseInit
00002ecc g       .dlalign	00000000 _data_lma
00001b58 g     F .text	0000007e TIM_INT_Init
00002546 g     F .text	00000066 SystemCoreClockUpdate
00001124 g     F .text	00000024 .hidden __modsi3
000025ac  w      .text	00000000 DMA1_Channel2_IRQHandler
0000152c g     F .text	000000be NRF24_ReadRXPayload
00001c9e g     F .text	00000076 USART_DMA_TX_Config
000025ae  w      .text	00000000 handle_reset
000025ac  w      .text	00000000 FLASH_IRQHandler
000010a0 g     F .text	0000000a .hidden __riscv_save_0
00001dc6 g     F .text	000000a0 USART1_IRQHandler
00003000 g       *ABS*	00000000 __app_size
00002e36 g     F .text	00000010 strlen
20000300 g     O .bss	00000014 device
000025ac  w      .text	00000000 I2C1_ER_IRQHandler
00002af0 g     F .text	00000034 SPI_Init
00002992 g     F .text	00000006 NVIC_PriorityGroupConfig
000012a2 g     F .text	0000005c NRF24_HandleIRQ
0000266a g     F .text	00000092 DMA_DeInit
000010aa g     F .text	0000000a .hidden __riscv_restore_1
000015ea g     F .text	0000007c NRF24_SetTXAddress
000027ee g     F .text	00000016 FLASH_GetBank1Status
00002d12 g     F .text	00000012 USART_DMACmd
00001666 g     F .text	00000070 NRF24_SetRXAddress
00001f14 g     F .text	00000060 flash_save_metadata



Disassembly of section .init:

00001000 <_sinit>:
    1000:	5ae0106f          	j	25ae <handle_reset>
    1004:	00000000          	.word	0x00000000
    1008:	000019d0          	.word	0x000019d0
    100c:	000019d2          	.word	0x000019d2
	...
    1030:	000025ac          	.word	0x000025ac
    1034:	00000000          	.word	0x00000000
    1038:	000025ac          	.word	0x000025ac
    103c:	00000000          	.word	0x00000000
    1040:	000025ac          	.word	0x000025ac
    1044:	000025ac          	.word	0x000025ac
    1048:	000025ac          	.word	0x000025ac
    104c:	000025ac          	.word	0x000025ac
    1050:	00001e66          	.word	0x00001e66
    1054:	000025ac          	.word	0x000025ac
    1058:	000025ac          	.word	0x000025ac
    105c:	000025ac          	.word	0x000025ac
    1060:	000025ac          	.word	0x000025ac
    1064:	000025ac          	.word	0x000025ac
    1068:	000025ac          	.word	0x000025ac
    106c:	000025ac          	.word	0x000025ac
    1070:	000025ac          	.word	0x000025ac
    1074:	000025ac          	.word	0x000025ac
    1078:	000025ac          	.word	0x000025ac
    107c:	000025ac          	.word	0x000025ac
    1080:	00001dc6          	.word	0x00001dc6
    1084:	000025ac          	.word	0x000025ac
    1088:	000025ac          	.word	0x000025ac
    108c:	000025ac          	.word	0x000025ac
    1090:	000025ac          	.word	0x000025ac
    1094:	000025ac          	.word	0x000025ac
    1098:	00001ea0          	.word	0x00001ea0
    109c:	0000                	unimp
	...

Disassembly of section .text:

000010a0 <__riscv_save_0>:
    10a0:	1151                	addi	sp,sp,-12
    10a2:	c026                	sw	s1,0(sp)
    10a4:	c222                	sw	s0,4(sp)
    10a6:	c406                	sw	ra,8(sp)
    10a8:	8282                	jr	t0

000010aa <__riscv_restore_0>:
    10aa:	4482                	lw	s1,0(sp)
    10ac:	4412                	lw	s0,4(sp)
    10ae:	40a2                	lw	ra,8(sp)
    10b0:	0131                	addi	sp,sp,12
    10b2:	8082                	ret

000010b4 <__mulsi3>:
    10b4:	862a                	mv	a2,a0
    10b6:	4501                	li	a0,0
    10b8:	0015f693          	andi	a3,a1,1
    10bc:	c291                	beqz	a3,10c0 <__mulsi3+0xc>
    10be:	9532                	add	a0,a0,a2
    10c0:	8185                	srli	a1,a1,0x1
    10c2:	0606                	slli	a2,a2,0x1
    10c4:	f9f5                	bnez	a1,10b8 <__mulsi3+0x4>
    10c6:	8082                	ret
    10c8:	0000                	unimp
	...

000010cc <__divsi3>:
    10cc:	02054e63          	bltz	a0,1108 <__umodsi3+0x8>
    10d0:	0405c363          	bltz	a1,1116 <__umodsi3+0x16>

000010d4 <__hidden___udivsi3>:
    10d4:	862e                	mv	a2,a1
    10d6:	85aa                	mv	a1,a0
    10d8:	557d                	li	a0,-1
    10da:	c215                	beqz	a2,10fe <__hidden___udivsi3+0x2a>
    10dc:	4685                	li	a3,1
    10de:	00b67863          	bgeu	a2,a1,10ee <__hidden___udivsi3+0x1a>
    10e2:	00c05663          	blez	a2,10ee <__hidden___udivsi3+0x1a>
    10e6:	0606                	slli	a2,a2,0x1
    10e8:	0686                	slli	a3,a3,0x1
    10ea:	feb66ce3          	bltu	a2,a1,10e2 <__hidden___udivsi3+0xe>
    10ee:	4501                	li	a0,0
    10f0:	00c5e463          	bltu	a1,a2,10f8 <__hidden___udivsi3+0x24>
    10f4:	8d91                	sub	a1,a1,a2
    10f6:	8d55                	or	a0,a0,a3
    10f8:	8285                	srli	a3,a3,0x1
    10fa:	8205                	srli	a2,a2,0x1
    10fc:	faf5                	bnez	a3,10f0 <__hidden___udivsi3+0x1c>
    10fe:	8082                	ret

00001100 <__umodsi3>:
    1100:	8286                	mv	t0,ra
    1102:	3fc9                	jal	10d4 <__hidden___udivsi3>
    1104:	852e                	mv	a0,a1
    1106:	8282                	jr	t0
    1108:	40a00533          	neg	a0,a0
    110c:	00b04763          	bgtz	a1,111a <__umodsi3+0x1a>
    1110:	40b005b3          	neg	a1,a1
    1114:	b7c1                	j	10d4 <__hidden___udivsi3>
    1116:	40b005b3          	neg	a1,a1
    111a:	8286                	mv	t0,ra
    111c:	3f65                	jal	10d4 <__hidden___udivsi3>
    111e:	40a00533          	neg	a0,a0
    1122:	8282                	jr	t0

00001124 <__modsi3>:
    1124:	8286                	mv	t0,ra
    1126:	0005c763          	bltz	a1,1134 <__modsi3+0x10>
    112a:	00054963          	bltz	a0,113c <__modsi3+0x18>
    112e:	375d                	jal	10d4 <__hidden___udivsi3>
    1130:	852e                	mv	a0,a1
    1132:	8282                	jr	t0
    1134:	40b005b3          	neg	a1,a1
    1138:	fe055be3          	bgez	a0,112e <__modsi3+0xa>
    113c:	40a00533          	neg	a0,a0
    1140:	3f51                	jal	10d4 <__hidden___udivsi3>
    1142:	40b00533          	neg	a0,a1
    1146:	8282                	jr	t0
	...

0000114a <memcpy>:
    114a:	832a                	mv	t1,a0
    114c:	ca09                	beqz	a2,115e <memcpy+0x14>
    114e:	00058383          	lb	t2,0(a1)
    1152:	00730023          	sb	t2,0(t1)
    1156:	167d                	addi	a2,a2,-1
    1158:	0305                	addi	t1,t1,1
    115a:	0585                	addi	a1,a1,1
    115c:	fa6d                	bnez	a2,114e <memcpy+0x4>
    115e:	8082                	ret

00001160 <memmove>:
    1160:	c215                	beqz	a2,1184 <memmove+0x24>
    1162:	832a                	mv	t1,a0
    1164:	4685                	li	a3,1
    1166:	00b56763          	bltu	a0,a1,1174 <memmove+0x14>
    116a:	56fd                	li	a3,-1
    116c:	fff60713          	addi	a4,a2,-1
    1170:	933a                	add	t1,t1,a4
    1172:	95ba                	add	a1,a1,a4
    1174:	00058383          	lb	t2,0(a1)
    1178:	00730023          	sb	t2,0(t1)
    117c:	167d                	addi	a2,a2,-1
    117e:	9336                	add	t1,t1,a3
    1180:	95b6                	add	a1,a1,a3
    1182:	fa6d                	bnez	a2,1174 <memmove+0x14>
    1184:	8082                	ret

00001186 <memset>:
    1186:	832a                	mv	t1,a0
    1188:	c611                	beqz	a2,1194 <memset+0xe>
    118a:	00b30023          	sb	a1,0(t1)
    118e:	167d                	addi	a2,a2,-1
    1190:	0305                	addi	t1,t1,1
    1192:	fe65                	bnez	a2,118a <memset+0x4>
    1194:	8082                	ret

00001196 <nrf_cs_high>:
    1196:	250e                	lhu	a1,8(a0)
    1198:	4148                	lw	a0,4(a0)
    119a:	7c40106f          	j	295e <GPIO_SetBits>

0000119e <nrf_ce_low>:
    119e:	290e                	lhu	a1,16(a0)
    11a0:	4548                	lw	a0,12(a0)
    11a2:	7c00106f          	j	2962 <GPIO_ResetBits>

000011a6 <nrf_cs_low>:
    11a6:	250e                	lhu	a1,8(a0)
    11a8:	4148                	lw	a0,4(a0)
    11aa:	7b80106f          	j	2962 <GPIO_ResetBits>

000011ae <nrf_spi_txrx>:
    11ae:	ef3ff2ef          	jal	t0,10a0 <__riscv_save_0>
    11b2:	842a                	mv	s0,a0
    11b4:	84ae                	mv	s1,a1
    11b6:	4008                	lw	a0,0(s0)
    11b8:	4589                	li	a1,2
    11ba:	18d010ef          	jal	ra,2b46 <SPI_I2S_GetFlagStatus>
    11be:	dd65                	beqz	a0,11b6 <nrf_spi_txrx+0x8>
    11c0:	4008                	lw	a0,0(s0)
    11c2:	85a6                	mv	a1,s1
    11c4:	17b010ef          	jal	ra,2b3e <SPI_I2S_SendData>
    11c8:	4008                	lw	a0,0(s0)
    11ca:	4585                	li	a1,1
    11cc:	17b010ef          	jal	ra,2b46 <SPI_I2S_GetFlagStatus>
    11d0:	dd65                	beqz	a0,11c8 <nrf_spi_txrx+0x1a>
    11d2:	4008                	lw	a0,0(s0)
    11d4:	16f010ef          	jal	ra,2b42 <SPI_I2S_ReceiveData>
    11d8:	0ff57513          	zext.b	a0,a0
    11dc:	b5f9                	j	10aa <__riscv_restore_0>

000011de <NRF24_pin_config>:
    11de:	ec3ff2ef          	jal	t0,10a0 <__riscv_save_0>
    11e2:	c10c                	sw	a1,0(a0)
    11e4:	c150                	sw	a2,4(a0)
    11e6:	a516                	sh	a3,8(a0)
    11e8:	c558                	sw	a4,12(a0)
    11ea:	a91e                	sh	a5,16(a0)
    11ec:	842a                	mv	s0,a0
    11ee:	3765                	jal	1196 <nrf_cs_high>
    11f0:	8522                	mv	a0,s0
    11f2:	3775                	jal	119e <nrf_ce_low>
    11f4:	bd5d                	j	10aa <__riscv_restore_0>

000011f6 <NRF24_SPI_Write>:
    11f6:	eabff2ef          	jal	t0,10a0 <__riscv_save_0>
    11fa:	1171                	addi	sp,sp,-4
    11fc:	842e                	mv	s0,a1
    11fe:	84b2                	mv	s1,a2
    1200:	c02a                	sw	a0,0(sp)
    1202:	94a2                	add	s1,s1,s0
    1204:	374d                	jal	11a6 <nrf_cs_low>
    1206:	00941763          	bne	s0,s1,1214 <NRF24_SPI_Write+0x1e>
    120a:	4502                	lw	a0,0(sp)
    120c:	3769                	jal	1196 <nrf_cs_high>
    120e:	4501                	li	a0,0
    1210:	0111                	addi	sp,sp,4
    1212:	bd61                	j	10aa <__riscv_restore_0>
    1214:	200c                	lbu	a1,0(s0)
    1216:	4502                	lw	a0,0(sp)
    1218:	0405                	addi	s0,s0,1
    121a:	3f51                	jal	11ae <nrf_spi_txrx>
    121c:	b7ed                	j	1206 <NRF24_SPI_Write+0x10>

0000121e <NRF24_ReadRegister>:
    121e:	e83ff2ef          	jal	t0,10a0 <__riscv_save_0>
    1222:	1161                	addi	sp,sp,-8
    1224:	c232                	sw	a2,4(sp)
    1226:	84b6                	mv	s1,a3
    1228:	842e                	mv	s0,a1
    122a:	c02a                	sw	a0,0(sp)
    122c:	3fad                	jal	11a6 <nrf_cs_low>
    122e:	4502                	lw	a0,0(sp)
    1230:	01f47593          	andi	a1,s0,31
    1234:	3fad                	jal	11ae <nrf_spi_txrx>
    1236:	842a                	mv	s0,a0
    1238:	4502                	lw	a0,0(sp)
    123a:	0ff00593          	li	a1,255
    123e:	3f85                	jal	11ae <nrf_spi_txrx>
    1240:	4612                	lw	a2,4(sp)
    1242:	a208                	sb	a0,0(a2)
    1244:	4502                	lw	a0,0(sp)
    1246:	3f81                	jal	1196 <nrf_cs_high>
    1248:	c091                	beqz	s1,124c <NRF24_ReadRegister+0x2e>
    124a:	a080                	sb	s0,0(s1)
    124c:	4501                	li	a0,0
    124e:	0121                	addi	sp,sp,8
    1250:	bda9                	j	10aa <__riscv_restore_0>

00001252 <NRF24_WriteRegister>:
    1252:	e4fff2ef          	jal	t0,10a0 <__riscv_save_0>
    1256:	1161                	addi	sp,sp,-8
    1258:	84b2                	mv	s1,a2
    125a:	c236                	sw	a3,4(sp)
    125c:	842e                	mv	s0,a1
    125e:	c02a                	sw	a0,0(sp)
    1260:	3799                	jal	11a6 <nrf_cs_low>
    1262:	4502                	lw	a0,0(sp)
    1264:	01f47593          	andi	a1,s0,31
    1268:	0205e593          	ori	a1,a1,32
    126c:	3789                	jal	11ae <nrf_spi_txrx>
    126e:	842a                	mv	s0,a0
    1270:	4502                	lw	a0,0(sp)
    1272:	85a6                	mv	a1,s1
    1274:	3f2d                	jal	11ae <nrf_spi_txrx>
    1276:	4502                	lw	a0,0(sp)
    1278:	3f39                	jal	1196 <nrf_cs_high>
    127a:	4692                	lw	a3,4(sp)
    127c:	c291                	beqz	a3,1280 <NRF24_WriteRegister+0x2e>
    127e:	a280                	sb	s0,0(a3)
    1280:	4501                	li	a0,0
    1282:	0121                	addi	sp,sp,8
    1284:	b51d                	j	10aa <__riscv_restore_0>

00001286 <NRF24_ReadStatus>:
    1286:	e1bff2ef          	jal	t0,10a0 <__riscv_save_0>
    128a:	842a                	mv	s0,a0
    128c:	84ae                	mv	s1,a1
    128e:	3f21                	jal	11a6 <nrf_cs_low>
    1290:	0ff00593          	li	a1,255
    1294:	8522                	mv	a0,s0
    1296:	3f21                	jal	11ae <nrf_spi_txrx>
    1298:	a088                	sb	a0,0(s1)
    129a:	8522                	mv	a0,s0
    129c:	3ded                	jal	1196 <nrf_cs_high>
    129e:	4501                	li	a0,0
    12a0:	b529                	j	10aa <__riscv_restore_0>

000012a2 <NRF24_HandleIRQ>:
    12a2:	dffff2ef          	jal	t0,10a0 <__riscv_save_0>
    12a6:	1171                	addi	sp,sp,-4
    12a8:	00310593          	addi	a1,sp,3
    12ac:	842a                	mv	s0,a0
    12ae:	3fe1                	jal	1286 <NRF24_ReadStatus>
    12b0:	8190                	lbu	a2,3(sp)
    12b2:	ac30                	sb	a2,26(s0)
    12b4:	04067793          	andi	a5,a2,64
    12b8:	cb99                	beqz	a5,12ce <NRF24_HandleIRQ+0x2c>
    12ba:	4785                	li	a5,1
    12bc:	06f40ba3          	sb	a5,119(s0)
    12c0:	40165793          	srai	a5,a2,0x1
    12c4:	8b9d                	andi	a5,a5,7
    12c6:	471d                	li	a4,7
    12c8:	00e78363          	beq	a5,a4,12ce <NRF24_HandleIRQ+0x2c>
    12cc:	bc1c                	sb	a5,25(s0)
    12ce:	02067793          	andi	a5,a2,32
    12d2:	c791                	beqz	a5,12de <NRF24_HandleIRQ+0x3c>
    12d4:	4785                	li	a5,1
    12d6:	06f40c23          	sb	a5,120(s0)
    12da:	00040da3          	sb	zero,27(s0)
    12de:	01067793          	andi	a5,a2,16
    12e2:	c791                	beqz	a5,12ee <NRF24_HandleIRQ+0x4c>
    12e4:	4785                	li	a5,1
    12e6:	06f40ca3          	sb	a5,121(s0)
    12ea:	00040da3          	sb	zero,27(s0)
    12ee:	4681                	li	a3,0
    12f0:	07067613          	andi	a2,a2,112
    12f4:	459d                	li	a1,7
    12f6:	8522                	mv	a0,s0
    12f8:	3fa9                	jal	1252 <NRF24_WriteRegister>
    12fa:	0111                	addi	sp,sp,4
    12fc:	b37d                	j	10aa <__riscv_restore_0>

000012fe <NRF24_init>:
    12fe:	da3ff2ef          	jal	t0,10a0 <__riscv_save_0>
    1302:	1161                	addi	sp,sp,-8
    1304:	842a                	mv	s0,a0
    1306:	3d61                	jal	119e <nrf_ce_low>
    1308:	8522                	mv	a0,s0
    130a:	3571                	jal	1196 <nrf_cs_high>
    130c:	04600613          	li	a2,70
    1310:	4581                	li	a1,0
    1312:	00040c23          	sb	zero,24(s0)
    1316:	00040d23          	sb	zero,26(s0)
    131a:	03440513          	addi	a0,s0,52
    131e:	35a5                	jal	1186 <memset>
    1320:	4681                	li	a3,0
    1322:	00310613          	addi	a2,sp,3
    1326:	4581                	li	a1,0
    1328:	8522                	mv	a0,s0
    132a:	3dd5                	jal	121e <NRF24_ReadRegister>
    132c:	8190                	lbu	a2,3(sp)
    132e:	4681                	li	a3,0
    1330:	4581                	li	a1,0
    1332:	0fd67613          	andi	a2,a2,253
    1336:	8522                	mv	a0,s0
    1338:	3f29                	jal	1252 <NRF24_WriteRegister>
    133a:	4485                	li	s1,1
    133c:	06400513          	li	a0,100
    1340:	d444                	sw	s1,44(s0)
    1342:	281010ef          	jal	ra,2dc2 <Delay_Us>
    1346:	505c                	lw	a5,36(s0)
    1348:	4681                	li	a3,0
    134a:	458d                	li	a1,3
    134c:	3390                	lbu	a2,1(a5)
    134e:	8522                	mv	a0,s0
    1350:	8a0d                	andi	a2,a2,3
    1352:	3701                	jal	1252 <NRF24_WriteRegister>
    1354:	505c                	lw	a5,36(s0)
    1356:	4681                	li	a3,0
    1358:	4595                	li	a1,5
    135a:	2390                	lbu	a2,0(a5)
    135c:	8522                	mv	a0,s0
    135e:	8a15                	andi	a2,a2,5
    1360:	3dcd                	jal	1252 <NRF24_WriteRegister>
    1362:	505c                	lw	a5,36(s0)
    1364:	000101a3          	sb	zero,3(sp)
    1368:	4798                	lw	a4,8(a5)
    136a:	00971463          	bne	a4,s1,1372 <NRF24_init+0x74>
    136e:	4721                	li	a4,8
    1370:	81d8                	sb	a4,3(sp)
    1372:	47d8                	lw	a4,12(a5)
    1374:	4685                	li	a3,1
    1376:	819c                	lbu	a5,3(sp)
    1378:	0ed70a63          	beq	a4,a3,146c <NRF24_init+0x16e>
    137c:	4689                	li	a3,2
    137e:	0ed70b63          	beq	a4,a3,1474 <NRF24_init+0x176>
    1382:	0067e793          	ori	a5,a5,6
    1386:	0e070563          	beqz	a4,1470 <NRF24_init+0x172>
    138a:	8190                	lbu	a2,3(sp)
    138c:	4681                	li	a3,0
    138e:	4599                	li	a1,6
    1390:	8522                	mv	a0,s0
    1392:	35c1                	jal	1252 <NRF24_WriteRegister>
    1394:	505c                	lw	a5,36(s0)
    1396:	4681                	li	a3,0
    1398:	4591                	li	a1,4
    139a:	23d0                	lbu	a2,4(a5)
    139c:	23fe                	lhu	a5,6(a5)
    139e:	8522                	mv	a0,s0
    13a0:	8a3d                	andi	a2,a2,15
    13a2:	0792                	slli	a5,a5,0x4
    13a4:	8e5d                	or	a2,a2,a5
    13a6:	0ff67613          	zext.b	a2,a2
    13aa:	81d0                	sb	a2,3(sp)
    13ac:	355d                	jal	1252 <NRF24_WriteRegister>
    13ae:	505c                	lw	a5,36(s0)
    13b0:	4681                	li	a3,0
    13b2:	4605                	li	a2,1
    13b4:	23bc                	lbu	a5,2(a5)
    13b6:	e391                	bnez	a5,13ba <NRF24_init+0xbc>
    13b8:	4601                	li	a2,0
    13ba:	4585                	li	a1,1
    13bc:	8522                	mv	a0,s0
    13be:	3d51                	jal	1252 <NRF24_WriteRegister>
    13c0:	4681                	li	a3,0
    13c2:	4605                	li	a2,1
    13c4:	4589                	li	a1,2
    13c6:	8522                	mv	a0,s0
    13c8:	3569                	jal	1252 <NRF24_WriteRegister>
    13ca:	505c                	lw	a5,36(s0)
    13cc:	33bc                	lbu	a5,3(a5)
    13ce:	c7d5                	beqz	a5,147a <NRF24_init+0x17c>
    13d0:	679d                	lui	a5,0x7
    13d2:	35078793          	addi	a5,a5,848 # 7350 <__app_size+0x4350>
    13d6:	4609                	li	a2,2
    13d8:	004c                	addi	a1,sp,4
    13da:	8522                	mv	a0,s0
    13dc:	827c                	sh	a5,4(sp)
    13de:	3d21                	jal	11f6 <NRF24_SPI_Write>
    13e0:	4681                	li	a3,0
    13e2:	4611                	li	a2,4
    13e4:	45f5                	li	a1,29
    13e6:	8522                	mv	a0,s0
    13e8:	35ad                	jal	1252 <NRF24_WriteRegister>
    13ea:	4681                	li	a3,0
    13ec:	4605                	li	a2,1
    13ee:	45f1                	li	a1,28
    13f0:	8522                	mv	a0,s0
    13f2:	3585                	jal	1252 <NRF24_WriteRegister>
    13f4:	5785                	li	a5,-31
    13f6:	4605                	li	a2,1
    13f8:	004c                	addi	a1,sp,4
    13fa:	8522                	mv	a0,s0
    13fc:	825c                	sb	a5,4(sp)
    13fe:	3be5                	jal	11f6 <NRF24_SPI_Write>
    1400:	5789                	li	a5,-30
    1402:	4605                	li	a2,1
    1404:	004c                	addi	a1,sp,4
    1406:	8522                	mv	a0,s0
    1408:	825c                	sb	a5,4(sp)
    140a:	33f5                	jal	11f6 <NRF24_SPI_Write>
    140c:	4681                	li	a3,0
    140e:	07000613          	li	a2,112
    1412:	459d                	li	a1,7
    1414:	8522                	mv	a0,s0
    1416:	3d35                	jal	1252 <NRF24_WriteRegister>
    1418:	5018                	lw	a4,32(s0)
    141a:	47b1                	li	a5,12
    141c:	81dc                	sb	a5,3(sp)
    141e:	4785                	li	a5,1
    1420:	00f71463          	bne	a4,a5,1428 <NRF24_init+0x12a>
    1424:	47b5                	li	a5,13
    1426:	81dc                	sb	a5,3(sp)
    1428:	8190                	lbu	a2,3(sp)
    142a:	4681                	li	a3,0
    142c:	4581                	li	a1,0
    142e:	8522                	mv	a0,s0
    1430:	350d                	jal	1252 <NRF24_WriteRegister>
    1432:	4681                	li	a3,0
    1434:	00310613          	addi	a2,sp,3
    1438:	4581                	li	a1,0
    143a:	8522                	mv	a0,s0
    143c:	33cd                	jal	121e <NRF24_ReadRegister>
    143e:	8190                	lbu	a2,3(sp)
    1440:	4681                	li	a3,0
    1442:	4581                	li	a1,0
    1444:	00266613          	ori	a2,a2,2
    1448:	8522                	mv	a0,s0
    144a:	81d0                	sb	a2,3(sp)
    144c:	3519                	jal	1252 <NRF24_WriteRegister>
    144e:	4509                	li	a0,2
    1450:	1ad010ef          	jal	ra,2dfc <Delay_Ms>
    1454:	5018                	lw	a4,32(s0)
    1456:	4785                	li	a5,1
    1458:	02f71963          	bne	a4,a5,148a <NRF24_init+0x18c>
    145c:	280e                	lhu	a1,16(s0)
    145e:	4448                	lw	a0,12(s0)
    1460:	4fe010ef          	jal	ra,295e <GPIO_SetBits>
    1464:	4791                	li	a5,4
    1466:	d45c                	sw	a5,44(s0)
    1468:	0121                	addi	sp,sp,8
    146a:	b181                	j	10aa <__riscv_restore_0>
    146c:	0047e793          	ori	a5,a5,4
    1470:	81dc                	sb	a5,3(sp)
    1472:	bf21                	j	138a <NRF24_init+0x8c>
    1474:	0027e793          	ori	a5,a5,2
    1478:	bfe5                	j	1470 <NRF24_init+0x172>
    147a:	4681                	li	a3,0
    147c:	4601                	li	a2,0
    147e:	45f5                	li	a1,29
    1480:	8522                	mv	a0,s0
    1482:	3bc1                	jal	1252 <NRF24_WriteRegister>
    1484:	4681                	li	a3,0
    1486:	4601                	li	a2,0
    1488:	b79d                	j	13ee <NRF24_init+0xf0>
    148a:	8522                	mv	a0,s0
    148c:	3b09                	jal	119e <nrf_ce_low>
    148e:	4789                	li	a5,2
    1490:	bfd9                	j	1466 <NRF24_init+0x168>

00001492 <NRF24_Send>:
    1492:	c0fff2ef          	jal	t0,10a0 <__riscv_save_0>
    1496:	3d24                	lbu	s1,27(a0)
    1498:	1161                	addi	sp,sp,-8
    149a:	842a                	mv	s0,a0
    149c:	e081                	bnez	s1,149c <NRF24_Send+0xa>
    149e:	4785                	li	a5,1
    14a0:	bc3c                	sb	a5,27(s0)
    14a2:	501c                	lw	a5,32(s0)
    14a4:	c799                	beqz	a5,14b2 <NRF24_Send+0x20>
    14a6:	4791                	li	a5,4
    14a8:	c85c                	sw	a5,20(s0)
    14aa:	4485                	li	s1,1
    14ac:	8526                	mv	a0,s1
    14ae:	0121                	addi	sp,sp,8
    14b0:	beed                	j	10aa <__riscv_restore_0>
    14b2:	05444783          	lbu	a5,84(s0)
    14b6:	477d                	li	a4,31
    14b8:	17fd                	addi	a5,a5,-1
    14ba:	0ff7f793          	zext.b	a5,a5
    14be:	fef766e3          	bltu	a4,a5,14aa <NRF24_Send+0x18>
    14c2:	8522                	mv	a0,s0
    14c4:	39e9                	jal	119e <nrf_ce_low>
    14c6:	4681                	li	a3,0
    14c8:	03000613          	li	a2,48
    14cc:	459d                	li	a1,7
    14ce:	06041c23          	sh	zero,120(s0)
    14d2:	8522                	mv	a0,s0
    14d4:	3bbd                	jal	1252 <NRF24_WriteRegister>
    14d6:	5789                	li	a5,-30
    14d8:	4605                	li	a2,1
    14da:	00710593          	addi	a1,sp,7
    14de:	8522                	mv	a0,s0
    14e0:	83dc                	sb	a5,7(sp)
    14e2:	3b11                	jal	11f6 <NRF24_SPI_Write>
    14e4:	8522                	mv	a0,s0
    14e6:	31c1                	jal	11a6 <nrf_cs_low>
    14e8:	0a000593          	li	a1,160
    14ec:	8522                	mv	a0,s0
    14ee:	31c1                	jal	11ae <nrf_spi_txrx>
    14f0:	4781                	li	a5,0
    14f2:	05444703          	lbu	a4,84(s0)
    14f6:	00e7ef63          	bltu	a5,a4,1514 <NRF24_Send+0x82>
    14fa:	8522                	mv	a0,s0
    14fc:	3969                	jal	1196 <nrf_cs_high>
    14fe:	280e                	lhu	a1,16(s0)
    1500:	4448                	lw	a0,12(s0)
    1502:	45c010ef          	jal	ra,295e <GPIO_SetBits>
    1506:	06400513          	li	a0,100
    150a:	0b9010ef          	jal	ra,2dc2 <Delay_Us>
    150e:	8522                	mv	a0,s0
    1510:	3179                	jal	119e <nrf_ce_low>
    1512:	bf69                	j	14ac <NRF24_Send+0x1a>
    1514:	00f40733          	add	a4,s0,a5
    1518:	03474583          	lbu	a1,52(a4)
    151c:	8522                	mv	a0,s0
    151e:	c03e                	sw	a5,0(sp)
    1520:	3179                	jal	11ae <nrf_spi_txrx>
    1522:	4782                	lw	a5,0(sp)
    1524:	0785                	addi	a5,a5,1
    1526:	0ff7f793          	zext.b	a5,a5
    152a:	b7e1                	j	14f2 <NRF24_Send+0x60>

0000152c <NRF24_ReadRXPayload>:
    152c:	b75ff2ef          	jal	t0,10a0 <__riscv_save_0>
    1530:	5114                	lw	a3,32(a0)
    1532:	4705                	li	a4,1
    1534:	1151                	addi	sp,sp,-12
    1536:	842a                	mv	s0,a0
    1538:	4791                	li	a5,4
    153a:	06e69063          	bne	a3,a4,159a <NRF24_ReadRXPayload+0x6e>
    153e:	02000613          	li	a2,32
    1542:	4581                	li	a1,0
    1544:	05550513          	addi	a0,a0,85
    1548:	393d                	jal	1186 <memset>
    154a:	8522                	mv	a0,s0
    154c:	06040aa3          	sb	zero,117(s0)
    1550:	06040b23          	sb	zero,118(s0)
    1554:	3989                	jal	11a6 <nrf_cs_low>
    1556:	06000593          	li	a1,96
    155a:	8522                	mv	a0,s0
    155c:	3989                	jal	11ae <nrf_spi_txrx>
    155e:	0ff00593          	li	a1,255
    1562:	8522                	mv	a0,s0
    1564:	31a9                	jal	11ae <nrf_spi_txrx>
    1566:	84aa                	mv	s1,a0
    1568:	8522                	mv	a0,s0
    156a:	3135                	jal	1196 <nrf_cs_high>
    156c:	fff48793          	addi	a5,s1,-1
    1570:	0ff7f793          	zext.b	a5,a5
    1574:	477d                	li	a4,31
    1576:	02f77663          	bgeu	a4,a5,15a2 <NRF24_ReadRXPayload+0x76>
    157a:	5785                	li	a5,-31
    157c:	4605                	li	a2,1
    157e:	00b10593          	addi	a1,sp,11
    1582:	8522                	mv	a0,s0
    1584:	85dc                	sb	a5,11(sp)
    1586:	3985                	jal	11f6 <NRF24_SPI_Write>
    1588:	4681                	li	a3,0
    158a:	04000613          	li	a2,64
    158e:	459d                	li	a1,7
    1590:	8522                	mv	a0,s0
    1592:	31c1                	jal	1252 <NRF24_WriteRegister>
    1594:	478d                	li	a5,3
    1596:	06040ba3          	sb	zero,119(s0)
    159a:	c85c                	sw	a5,20(s0)
    159c:	4505                	li	a0,1
    159e:	0131                	addi	sp,sp,12
    15a0:	b629                	j	10aa <__riscv_restore_0>
    15a2:	8522                	mv	a0,s0
    15a4:	3109                	jal	11a6 <nrf_cs_low>
    15a6:	06100593          	li	a1,97
    15aa:	8522                	mv	a0,s0
    15ac:	3109                	jal	11ae <nrf_spi_txrx>
    15ae:	87a2                	mv	a5,s0
    15b0:	00848733          	add	a4,s1,s0
    15b4:	0ff00593          	li	a1,255
    15b8:	8522                	mv	a0,s0
    15ba:	c23a                	sw	a4,4(sp)
    15bc:	c03e                	sw	a5,0(sp)
    15be:	3ec5                	jal	11ae <nrf_spi_txrx>
    15c0:	4782                	lw	a5,0(sp)
    15c2:	4712                	lw	a4,4(sp)
    15c4:	04a78aa3          	sb	a0,85(a5)
    15c8:	0785                	addi	a5,a5,1
    15ca:	fee795e3          	bne	a5,a4,15b4 <NRF24_ReadRXPayload+0x88>
    15ce:	8522                	mv	a0,s0
    15d0:	36d9                	jal	1196 <nrf_cs_high>
    15d2:	4681                	li	a3,0
    15d4:	04000613          	li	a2,64
    15d8:	459d                	li	a1,7
    15da:	8522                	mv	a0,s0
    15dc:	399d                	jal	1252 <NRF24_WriteRegister>
    15de:	4501                	li	a0,0
    15e0:	06040ba3          	sb	zero,119(s0)
    15e4:	06940aa3          	sb	s1,117(s0)
    15e8:	bf5d                	j	159e <NRF24_ReadRXPayload+0x72>

000015ea <NRF24_SetTXAddress>:
    15ea:	ab7ff2ef          	jal	t0,10a0 <__riscv_save_0>
    15ee:	515c                	lw	a5,36(a0)
    15f0:	1161                	addi	sp,sp,-8
    15f2:	842a                	mv	s0,a0
    15f4:	339c                	lbu	a5,1(a5)
    15f6:	84ae                	mv	s1,a1
    15f8:	0789                	addi	a5,a5,2
    15fa:	0ff7f793          	zext.b	a5,a5
    15fe:	c03e                	sw	a5,0(sp)
    1600:	365d                	jal	11a6 <nrf_cs_low>
    1602:	03000593          	li	a1,48
    1606:	8522                	mv	a0,s0
    1608:	365d                	jal	11ae <nrf_spi_txrx>
    160a:	4781                	li	a5,0
    160c:	4682                	lw	a3,0(sp)
    160e:	0ff7f713          	zext.b	a4,a5
    1612:	02d76863          	bltu	a4,a3,1642 <NRF24_SetTXAddress+0x58>
    1616:	8522                	mv	a0,s0
    1618:	3ebd                	jal	1196 <nrf_cs_high>
    161a:	505c                	lw	a5,36(s0)
    161c:	23bc                	lbu	a5,2(a5)
    161e:	cf99                	beqz	a5,163c <NRF24_SetTXAddress+0x52>
    1620:	8522                	mv	a0,s0
    1622:	3651                	jal	11a6 <nrf_cs_low>
    1624:	02a00593          	li	a1,42
    1628:	8522                	mv	a0,s0
    162a:	3651                	jal	11ae <nrf_spi_txrx>
    162c:	4781                	li	a5,0
    162e:	4682                	lw	a3,0(sp)
    1630:	0ff7f713          	zext.b	a4,a5
    1634:	02d76063          	bltu	a4,a3,1654 <NRF24_SetTXAddress+0x6a>
    1638:	8522                	mv	a0,s0
    163a:	3eb1                	jal	1196 <nrf_cs_high>
    163c:	4501                	li	a0,0
    163e:	0121                	addi	sp,sp,8
    1640:	b4ad                	j	10aa <__riscv_restore_0>
    1642:	00f48733          	add	a4,s1,a5
    1646:	230c                	lbu	a1,0(a4)
    1648:	8522                	mv	a0,s0
    164a:	c23e                	sw	a5,4(sp)
    164c:	368d                	jal	11ae <nrf_spi_txrx>
    164e:	4792                	lw	a5,4(sp)
    1650:	0785                	addi	a5,a5,1
    1652:	bf6d                	j	160c <NRF24_SetTXAddress+0x22>
    1654:	00f48733          	add	a4,s1,a5
    1658:	230c                	lbu	a1,0(a4)
    165a:	8522                	mv	a0,s0
    165c:	c23e                	sw	a5,4(sp)
    165e:	3e81                	jal	11ae <nrf_spi_txrx>
    1660:	4792                	lw	a5,4(sp)
    1662:	0785                	addi	a5,a5,1
    1664:	b7e9                	j	162e <NRF24_SetTXAddress+0x44>

00001666 <NRF24_SetRXAddress>:
    1666:	a3bff2ef          	jal	t0,10a0 <__riscv_save_0>
    166a:	1151                	addi	sp,sp,-12
    166c:	c02a                	sw	a0,0(sp)
    166e:	4795                	li	a5,5
    1670:	06b7e163          	bltu	a5,a1,16d2 <NRF24_SetRXAddress+0x6c>
    1674:	515c                	lw	a5,36(a0)
    1676:	842e                	mv	s0,a1
    1678:	84b2                	mv	s1,a2
    167a:	339c                	lbu	a5,1(a5)
    167c:	c23e                	sw	a5,4(sp)
    167e:	3625                	jal	11a6 <nrf_cs_low>
    1680:	4502                	lw	a0,0(sp)
    1682:	00a40593          	addi	a1,s0,10
    1686:	0205e593          	ori	a1,a1,32
    168a:	0ff5f593          	zext.b	a1,a1
    168e:	3605                	jal	11ae <nrf_spi_txrx>
    1690:	4685                	li	a3,1
    1692:	0286ec63          	bltu	a3,s0,16ca <NRF24_SetRXAddress+0x64>
    1696:	4792                	lw	a5,4(sp)
    1698:	4701                	li	a4,0
    169a:	0789                	addi	a5,a5,2
    169c:	0ff7f793          	zext.b	a5,a5
    16a0:	0ff77693          	zext.b	a3,a4
    16a4:	00f6e863          	bltu	a3,a5,16b4 <NRF24_SetRXAddress+0x4e>
    16a8:	4502                	lw	a0,0(sp)
    16aa:	34f5                	jal	1196 <nrf_cs_high>
    16ac:	4501                	li	a0,0
    16ae:	0131                	addi	sp,sp,12
    16b0:	9fbff06f          	j	10aa <__riscv_restore_0>
    16b4:	00e486b3          	add	a3,s1,a4
    16b8:	228c                	lbu	a1,0(a3)
    16ba:	4502                	lw	a0,0(sp)
    16bc:	c43e                	sw	a5,8(sp)
    16be:	c23a                	sw	a4,4(sp)
    16c0:	34fd                	jal	11ae <nrf_spi_txrx>
    16c2:	4712                	lw	a4,4(sp)
    16c4:	47a2                	lw	a5,8(sp)
    16c6:	0705                	addi	a4,a4,1
    16c8:	bfe1                	j	16a0 <NRF24_SetRXAddress+0x3a>
    16ca:	208c                	lbu	a1,0(s1)
    16cc:	4502                	lw	a0,0(sp)
    16ce:	34c5                	jal	11ae <nrf_spi_txrx>
    16d0:	bfe1                	j	16a8 <NRF24_SetRXAddress+0x42>
    16d2:	4505                	li	a0,1
    16d4:	bfe9                	j	16ae <NRF24_SetRXAddress+0x48>

000016d6 <packetDataReset>:
    16d6:	9cbff2ef          	jal	t0,10a0 <__riscv_save_0>
    16da:	200004b7          	lui	s1,0x20000
    16de:	03848413          	addi	s0,s1,56 # 20000038 <packets>
    16e2:	04d44603          	lbu	a2,77(s0)
    16e6:	4581                	li	a1,0
    16e8:	85018513          	addi	a0,gp,-1968 # 20000088 <packets+0x50>
    16ec:	3c69                	jal	1186 <memset>
    16ee:	20000537          	lui	a0,0x20000
    16f2:	4669                	li	a2,26
    16f4:	4581                	li	a1,0
    16f6:	04450513          	addi	a0,a0,68 # 20000044 <packets+0xc>
    16fa:	04041323          	sh	zero,70(s0)
    16fe:	04042423          	sw	zero,72(s0)
    1702:	04042623          	sw	zero,76(s0)
    1706:	0204ac23          	sw	zero,56(s1)
    170a:	00042223          	sw	zero,4(s0)
    170e:	00042423          	sw	zero,8(s0)
    1712:	3c95                	jal	1186 <memset>
    1714:	997ff06f          	j	10aa <__riscv_restore_0>

00001718 <RF_decode>:
    1718:	989ff2ef          	jal	t0,10a0 <__riscv_save_0>
    171c:	1171                	addi	sp,sp,-4
    171e:	842e                	mv	s0,a1
    1720:	84aa                	mv	s1,a0
    1722:	c032                	sw	a2,0(sp)
    1724:	3f4d                	jal	16d6 <packetDataReset>
    1726:	2094                	lbu	a3,0(s1)
    1728:	4602                	lw	a2,0(sp)
    172a:	a074                	sb	a3,6(s0)
    172c:	309c                	lbu	a5,1(s1)
    172e:	b07c                	sb	a5,7(s0)
    1730:	20bc                	lbu	a5,2(s1)
    1732:	a41c                	sb	a5,8(s0)
    1734:	30bc                	lbu	a5,3(s1)
    1736:	b41c                	sb	a5,9(s0)
    1738:	20d8                	lbu	a4,4(s1)
    173a:	a438                	sb	a4,10(s0)
    173c:	30cc                	lbu	a1,5(s1)
    173e:	b42c                	sb	a1,11(s0)
    1740:	cd89                	beqz	a1,175a <RF_decode+0x42>
    1742:	4701                	li	a4,0
    1744:	00e48533          	add	a0,s1,a4
    1748:	00654303          	lbu	t1,6(a0)
    174c:	00e40533          	add	a0,s0,a4
    1750:	0705                	addi	a4,a4,1
    1752:	00650623          	sb	t1,12(a0)
    1756:	feb747e3          	blt	a4,a1,1744 <RF_decode+0x2c>
    175a:	4705                	li	a4,1
    175c:	4509                	li	a0,2
    175e:	04e69e63          	bne	a3,a4,17ba <RF_decode+0xa2>
    1762:	02000713          	li	a4,32
    1766:	450d                	li	a0,3
    1768:	04e78963          	beq	a5,a4,17ba <RF_decode+0xa2>
    176c:	04f76163          	bltu	a4,a5,17ae <RF_decode+0x96>
    1770:	4741                	li	a4,16
    1772:	04d79163          	bne	a5,a3,17b4 <RF_decode+0x9c>
    1776:	a21c                	sb	a5,0(a2)
    1778:	3430                	lbu	a2,11(s0)
    177a:	207a                	lhu	a4,6(s0)
    177c:	faa00793          	li	a5,-86
    1780:	04f40323          	sb	a5,70(s0)
    1784:	00860793          	addi	a5,a2,8
    1788:	04f403a3          	sb	a5,71(s0)
    178c:	04e41423          	sh	a4,72(s0)
    1790:	243c                	lbu	a5,10(s0)
    1792:	241a                	lhu	a4,8(s0)
    1794:	04c406a3          	sb	a2,77(s0)
    1798:	04f40623          	sb	a5,76(s0)
    179c:	04e41523          	sh	a4,74(s0)
    17a0:	00c40593          	addi	a1,s0,12
    17a4:	05040513          	addi	a0,s0,80
    17a8:	9b9ff0ef          	jal	ra,1160 <memmove>
    17ac:	a031                	j	17b8 <RF_decode+0xa0>
    17ae:	0ff00713          	li	a4,255
    17b2:	4511                	li	a0,4
    17b4:	00e78363          	beq	a5,a4,17ba <RF_decode+0xa2>
    17b8:	4501                	li	a0,0
    17ba:	0111                	addi	sp,sp,4
    17bc:	8efff06f          	j	10aa <__riscv_restore_0>

000017c0 <RF_encode>:
    17c0:	217c                	lbu	a5,6(a0)
    17c2:	a19c                	sb	a5,0(a1)
    17c4:	317c                	lbu	a5,7(a0)
    17c6:	b19c                	sb	a5,1(a1)
    17c8:	251c                	lbu	a5,8(a0)
    17ca:	a1bc                	sb	a5,2(a1)
    17cc:	351c                	lbu	a5,9(a0)
    17ce:	b1bc                	sb	a5,3(a1)
    17d0:	253c                	lbu	a5,10(a0)
    17d2:	a1dc                	sb	a5,4(a1)
    17d4:	353c                	lbu	a5,11(a0)
    17d6:	b1dc                	sb	a5,5(a1)
    17d8:	e385                	bnez	a5,17f8 <RF_encode+0x38>
    17da:	353c                	lbu	a5,11(a0)
    17dc:	0799                	addi	a5,a5,6
    17de:	a21c                	sb	a5,0(a2)
    17e0:	8082                	ret
    17e2:	00f50733          	add	a4,a0,a5
    17e6:	2754                	lbu	a3,12(a4)
    17e8:	00f58733          	add	a4,a1,a5
    17ec:	0785                	addi	a5,a5,1
    17ee:	a374                	sb	a3,6(a4)
    17f0:	3538                	lbu	a4,11(a0)
    17f2:	fee7c8e3          	blt	a5,a4,17e2 <RF_encode+0x22>
    17f6:	b7d5                	j	17da <RF_encode+0x1a>
    17f8:	4781                	li	a5,0
    17fa:	bfdd                	j	17f0 <RF_encode+0x30>

000017fc <crc16_cal>:
    17fc:	862a                	mv	a2,a0
    17fe:	7369                	lui	t1,0xffffa
    1800:	6541                	lui	a0,0x10
    1802:	4681                	li	a3,0
    1804:	157d                	addi	a0,a0,-1 # ffff <__app_size+0xcfff>
    1806:	0305                	addi	t1,t1,1 # ffffa001 <__global_pointer$+0xdfff97c9>
    1808:	01069793          	slli	a5,a3,0x10
    180c:	83c1                	srli	a5,a5,0x10
    180e:	00b7e363          	bltu	a5,a1,1814 <crc16_cal+0x18>
    1812:	8082                	ret
    1814:	00d607b3          	add	a5,a2,a3
    1818:	239c                	lbu	a5,0(a5)
    181a:	8d3d                	xor	a0,a0,a5
    181c:	47a1                	li	a5,8
    181e:	00157713          	andi	a4,a0,1
    1822:	8105                	srli	a0,a0,0x1
    1824:	c711                	beqz	a4,1830 <crc16_cal+0x34>
    1826:	00654733          	xor	a4,a0,t1
    182a:	01071513          	slli	a0,a4,0x10
    182e:	8141                	srli	a0,a0,0x10
    1830:	17fd                	addi	a5,a5,-1
    1832:	0ff7f793          	zext.b	a5,a5
    1836:	f7e5                	bnez	a5,181e <crc16_cal+0x22>
    1838:	0685                	addi	a3,a3,1
    183a:	b7f9                	j	1808 <crc16_cal+0xc>

0000183c <UART_decode>:
    183c:	865ff2ef          	jal	t0,10a0 <__riscv_save_0>
    1840:	1171                	addi	sp,sp,-4
    1842:	842e                	mv	s0,a1
    1844:	c02a                	sw	a0,0(sp)
    1846:	84b2                	mv	s1,a2
    1848:	3579                	jal	16d6 <packetDataReset>
    184a:	4502                	lw	a0,0(sp)
    184c:	4691                	li	a3,4
    184e:	2118                	lbu	a4,0(a0)
    1850:	04e40323          	sb	a4,70(s0)
    1854:	311c                	lbu	a5,1(a0)
    1856:	04f403a3          	sb	a5,71(s0)
    185a:	04d79163          	bne	a5,a3,189c <UART_decode+0x60>
    185e:	a018                	sb	a4,0(s0)
    1860:	b01c                	sb	a5,1(s0)
    1862:	2138                	lbu	a4,2(a0)
    1864:	a038                	sb	a4,2(s0)
    1866:	3138                	lbu	a4,3(a0)
    1868:	b038                	sb	a4,3(s0)
    186a:	3158                	lbu	a4,5(a0)
    186c:	2154                	lbu	a3,4(a0)
    186e:	0722                	slli	a4,a4,0x8
    1870:	8f55                	or	a4,a4,a3
    1872:	a05a                	sh	a4,4(s0)
    1874:	300c                	lbu	a1,1(s0)
    1876:	0505                	addi	a0,a0,1
    1878:	c9b5                	beqz	a1,18ec <UART_decode+0xb0>
    187a:	15fd                	addi	a1,a1,-1
    187c:	05c2                	slli	a1,a1,0x10
    187e:	81c1                	srli	a1,a1,0x10
    1880:	3fb5                	jal	17fc <crc16_cal>
    1882:	205a                	lhu	a4,4(s0)
    1884:	4785                	li	a5,1
    1886:	00a71763          	bne	a4,a0,1894 <UART_decode+0x58>
    188a:	2034                	lbu	a3,2(s0)
    188c:	4741                	li	a4,16
    188e:	47a9                	li	a5,10
    1890:	06e69863          	bne	a3,a4,1900 <UART_decode+0xc4>
    1894:	853e                	mv	a0,a5
    1896:	0111                	addi	sp,sp,4
    1898:	813ff06f          	j	10aa <__riscv_restore_0>
    189c:	2138                	lbu	a4,2(a0)
    189e:	04e40423          	sb	a4,72(s0)
    18a2:	3138                	lbu	a4,3(a0)
    18a4:	04e404a3          	sb	a4,73(s0)
    18a8:	2158                	lbu	a4,4(a0)
    18aa:	04e40523          	sb	a4,74(s0)
    18ae:	3158                	lbu	a4,5(a0)
    18b0:	04e405a3          	sb	a4,75(s0)
    18b4:	2178                	lbu	a4,6(a0)
    18b6:	04e40623          	sb	a4,76(s0)
    18ba:	3174                	lbu	a3,7(a0)
    18bc:	04d406a3          	sb	a3,77(s0)
    18c0:	ea91                	bnez	a3,18d4 <UART_decode+0x98>
    18c2:	00f506b3          	add	a3,a0,a5
    18c6:	3298                	lbu	a4,1(a3)
    18c8:	2294                	lbu	a3,0(a3)
    18ca:	0722                	slli	a4,a4,0x8
    18cc:	8f55                	or	a4,a4,a3
    18ce:	04e41723          	sh	a4,78(s0)
    18d2:	b74d                	j	1874 <UART_decode+0x38>
    18d4:	4701                	li	a4,0
    18d6:	00e50633          	add	a2,a0,a4
    18da:	260c                	lbu	a1,8(a2)
    18dc:	00e40633          	add	a2,s0,a4
    18e0:	0705                	addi	a4,a4,1
    18e2:	04b60823          	sb	a1,80(a2)
    18e6:	fed748e3          	blt	a4,a3,18d6 <UART_decode+0x9a>
    18ea:	bfe1                	j	18c2 <UART_decode+0x86>
    18ec:	fff78593          	addi	a1,a5,-1
    18f0:	05c2                	slli	a1,a1,0x10
    18f2:	81c1                	srli	a1,a1,0x10
    18f4:	3721                	jal	17fc <crc16_cal>
    18f6:	04e45703          	lhu	a4,78(s0)
    18fa:	4785                	li	a5,1
    18fc:	f8a71ce3          	bne	a4,a0,1894 <UART_decode+0x58>
    1900:	04844683          	lbu	a3,72(s0)
    1904:	4705                	li	a4,1
    1906:	4789                	li	a5,2
    1908:	f8e696e3          	bne	a3,a4,1894 <UART_decode+0x58>
    190c:	04b44703          	lbu	a4,75(s0)
    1910:	02000793          	li	a5,32
    1914:	02f70063          	beq	a4,a5,1934 <UART_decode+0xf8>
    1918:	00e7ea63          	bltu	a5,a4,192c <UART_decode+0xf0>
    191c:	478d                	li	a5,3
    191e:	f6d70be3          	beq	a4,a3,1894 <UART_decode+0x58>
    1922:	46c1                	li	a3,16
    1924:	f6d708e3          	beq	a4,a3,1894 <UART_decode+0x58>
    1928:	4781                	li	a5,0
    192a:	b7ad                	j	1894 <UART_decode+0x58>
    192c:	0ff00693          	li	a3,255
    1930:	4791                	li	a5,4
    1932:	bfcd                	j	1924 <UART_decode+0xe8>
    1934:	a094                	sb	a3,0(s1)
    1936:	04845783          	lhu	a5,72(s0)
    193a:	04d44603          	lbu	a2,77(s0)
    193e:	05040593          	addi	a1,s0,80
    1942:	a07e                	sh	a5,6(s0)
    1944:	04a45783          	lhu	a5,74(s0)
    1948:	00c40513          	addi	a0,s0,12
    194c:	a41e                	sh	a5,8(s0)
    194e:	04c45783          	lhu	a5,76(s0)
    1952:	a43e                	sh	a5,10(s0)
    1954:	80dff0ef          	jal	ra,1160 <memmove>
    1958:	bfc1                	j	1928 <UART_decode+0xec>

0000195a <UART_encode>:
    195a:	f46ff2ef          	jal	t0,10a0 <__riscv_save_0>
    195e:	04654783          	lbu	a5,70(a0)
    1962:	842e                	mv	s0,a1
    1964:	a19c                	sb	a5,0(a1)
    1966:	04754783          	lbu	a5,71(a0)
    196a:	b19c                	sb	a5,1(a1)
    196c:	04854783          	lbu	a5,72(a0)
    1970:	a1bc                	sb	a5,2(a1)
    1972:	04954783          	lbu	a5,73(a0)
    1976:	b1bc                	sb	a5,3(a1)
    1978:	04a54783          	lbu	a5,74(a0)
    197c:	a1dc                	sb	a5,4(a1)
    197e:	04b54783          	lbu	a5,75(a0)
    1982:	b1dc                	sb	a5,5(a1)
    1984:	04c54783          	lbu	a5,76(a0)
    1988:	a1fc                	sb	a5,6(a1)
    198a:	04d54783          	lbu	a5,77(a0)
    198e:	b1fc                	sb	a5,7(a1)
    1990:	ef95                	bnez	a5,19cc <UART_encode+0x72>
    1992:	04d54483          	lbu	s1,77(a0)
    1996:	00140513          	addi	a0,s0,1
    199a:	00748593          	addi	a1,s1,7
    199e:	04a1                	addi	s1,s1,8
    19a0:	0ff4f493          	zext.b	s1,s1
    19a4:	3da1                	jal	17fc <crc16_cal>
    19a6:	94a2                	add	s1,s1,s0
    19a8:	a088                	sb	a0,0(s1)
    19aa:	8121                	srli	a0,a0,0x8
    19ac:	b088                	sb	a0,1(s1)
    19ae:	efcff06f          	j	10aa <__riscv_restore_0>
    19b2:	00f50733          	add	a4,a0,a5
    19b6:	05074683          	lbu	a3,80(a4)
    19ba:	00f40733          	add	a4,s0,a5
    19be:	0785                	addi	a5,a5,1
    19c0:	a714                	sb	a3,8(a4)
    19c2:	04d54703          	lbu	a4,77(a0)
    19c6:	fee7c6e3          	blt	a5,a4,19b2 <UART_encode+0x58>
    19ca:	b7e1                	j	1992 <UART_encode+0x38>
    19cc:	4781                	li	a5,0
    19ce:	bfd5                	j	19c2 <UART_encode+0x68>

000019d0 <NMI_Handler>:
    19d0:	a001                	j	19d0 <NMI_Handler>

000019d2 <HardFault_Handler>:
    19d2:	beef07b7          	lui	a5,0xbeef0
    19d6:	e000e737          	lui	a4,0xe000e
    19da:	08078793          	addi	a5,a5,128 # beef0080 <__global_pointer$+0x9eeef848>
    19de:	c73c                	sw	a5,72(a4)
    19e0:	a001                	j	19e0 <HardFault_Handler+0xe>

000019e2 <LinkPinout_Init>:
    19e2:	ebeff2ef          	jal	t0,10a0 <__riscv_save_0>
    19e6:	fdc10113          	addi	sp,sp,-36
    19ea:	4585                	li	a1,1
    19ec:	03100513          	li	a0,49
    19f0:	c402                	sw	zero,8(sp)
    19f2:	c602                	sw	zero,12(sp)
    19f4:	c802                	sw	zero,16(sp)
    19f6:	ca02                	sw	zero,20(sp)
    19f8:	cc02                	sw	zero,24(sp)
    19fa:	ce02                	sw	zero,28(sp)
    19fc:	d002                	sw	zero,32(sp)
    19fe:	c002                	sw	zero,0(sp)
    1a00:	c202                	sw	zero,4(sp)
    1a02:	0b2010ef          	jal	ra,2ab4 <RCC_APB2PeriphClockCmd>
    1a06:	440d                	li	s0,3
    1a08:	4485                	li	s1,1
    1a0a:	47c1                	li	a5,16
    1a0c:	002c                	addi	a1,sp,8
    1a0e:	40011537          	lui	a0,0x40011
    1a12:	8464                	sh	s1,8(sp)
    1a14:	c622                	sw	s0,12(sp)
    1a16:	c83e                	sw	a5,16(sp)
    1a18:	6c5000ef          	jal	ra,28dc <GPIO_Init>
    1a1c:	47c1                	li	a5,16
    1a1e:	c83e                	sw	a5,16(sp)
    1a20:	400117b7          	lui	a5,0x40011
    1a24:	002c                	addi	a1,sp,8
    1a26:	40078513          	addi	a0,a5,1024 # 40011400 <__global_pointer$+0x20010bc8>
    1a2a:	8464                	sh	s1,8(sp)
    1a2c:	c622                	sw	s0,12(sp)
    1a2e:	6af000ef          	jal	ra,28dc <GPIO_Init>
    1a32:	02800793          	li	a5,40
    1a36:	c83e                	sw	a5,16(sp)
    1a38:	400117b7          	lui	a5,0x40011
    1a3c:	40078513          	addi	a0,a5,1024 # 40011400 <__global_pointer$+0x20010bc8>
    1a40:	4741                	li	a4,16
    1a42:	002c                	addi	a1,sp,8
    1a44:	8478                	sh	a4,8(sp)
    1a46:	c622                	sw	s0,12(sp)
    1a48:	695000ef          	jal	ra,28dc <GPIO_Init>
    1a4c:	4591                	li	a1,4
    1a4e:	450d                	li	a0,3
    1a50:	721000ef          	jal	ra,2970 <GPIO_EXTILineConfig>
    1a54:	4741                	li	a4,16
    1a56:	46a1                	li	a3,8
    1a58:	0848                	addi	a0,sp,20
    1a5a:	ca3a                	sw	a4,20(sp)
    1a5c:	ce36                	sw	a3,28(sp)
    1a5e:	d026                	sw	s1,32(sp)
    1a60:	cc02                	sw	zero,24(sp)
    1a62:	4e7000ef          	jal	ra,2748 <EXTI_Init>
    1a66:	11400793          	li	a5,276
    1a6a:	850a                	mv	a0,sp
    1a6c:	807c                	sh	a5,0(sp)
    1a6e:	8144                	sb	s1,2(sp)
    1a70:	c226                	sw	s1,4(sp)
    1a72:	727000ef          	jal	ra,2998 <NVIC_Init>
    1a76:	400117b7          	lui	a5,0x40011
    1a7a:	04800613          	li	a2,72
    1a7e:	40078513          	addi	a0,a5,1024 # 40011400 <__global_pointer$+0x20010bc8>
    1a82:	46a1                	li	a3,8
    1a84:	002c                	addi	a1,sp,8
    1a86:	c832                	sw	a2,16(sp)
    1a88:	8474                	sh	a3,8(sp)
    1a8a:	c622                	sw	s0,12(sp)
    1a8c:	651000ef          	jal	ra,28dc <GPIO_Init>
    1a90:	458d                	li	a1,3
    1a92:	450d                	li	a0,3
    1a94:	6dd000ef          	jal	ra,2970 <GPIO_EXTILineConfig>
    1a98:	4731                	li	a4,12
    1a9a:	46a1                	li	a3,8
    1a9c:	0848                	addi	a0,sp,20
    1a9e:	ce3a                	sw	a4,28(sp)
    1aa0:	ca36                	sw	a3,20(sp)
    1aa2:	d026                	sw	s1,32(sp)
    1aa4:	cc02                	sw	zero,24(sp)
    1aa6:	4a3000ef          	jal	ra,2748 <EXTI_Init>
    1aaa:	11400793          	li	a5,276
    1aae:	850a                	mv	a0,sp
    1ab0:	807c                	sh	a5,0(sp)
    1ab2:	c226                	sw	s1,4(sp)
    1ab4:	00010123          	sb	zero,2(sp)
    1ab8:	6e1000ef          	jal	ra,2998 <NVIC_Init>
    1abc:	04800613          	li	a2,72
    1ac0:	4689                	li	a3,2
    1ac2:	002c                	addi	a1,sp,8
    1ac4:	40011537          	lui	a0,0x40011
    1ac8:	c832                	sw	a2,16(sp)
    1aca:	8474                	sh	a3,8(sp)
    1acc:	c622                	sw	s0,12(sp)
    1ace:	60f000ef          	jal	ra,28dc <GPIO_Init>
    1ad2:	4585                	li	a1,1
    1ad4:	4509                	li	a0,2
    1ad6:	69b000ef          	jal	ra,2970 <GPIO_EXTILineConfig>
    1ada:	4689                	li	a3,2
    1adc:	4731                	li	a4,12
    1ade:	0848                	addi	a0,sp,20
    1ae0:	ca36                	sw	a3,20(sp)
    1ae2:	ce3a                	sw	a4,28(sp)
    1ae4:	d026                	sw	s1,32(sp)
    1ae6:	cc02                	sw	zero,24(sp)
    1ae8:	461000ef          	jal	ra,2748 <EXTI_Init>
    1aec:	11400793          	li	a5,276
    1af0:	850a                	mv	a0,sp
    1af2:	807c                	sh	a5,0(sp)
    1af4:	c226                	sw	s1,4(sp)
    1af6:	00010123          	sb	zero,2(sp)
    1afa:	69f000ef          	jal	ra,2998 <NVIC_Init>
    1afe:	46a1                	li	a3,8
    1b00:	4741                	li	a4,16
    1b02:	002c                	addi	a1,sp,8
    1b04:	40011537          	lui	a0,0x40011
    1b08:	8474                	sh	a3,8(sp)
    1b0a:	c622                	sw	s0,12(sp)
    1b0c:	c83a                	sw	a4,16(sp)
    1b0e:	5cf000ef          	jal	ra,28dc <GPIO_Init>
    1b12:	4491                	li	s1,4
    1b14:	4741                	li	a4,16
    1b16:	002c                	addi	a1,sp,8
    1b18:	40011537          	lui	a0,0x40011
    1b1c:	8464                	sh	s1,8(sp)
    1b1e:	c622                	sw	s0,12(sp)
    1b20:	c83a                	sw	a4,16(sp)
    1b22:	5bb000ef          	jal	ra,28dc <GPIO_Init>
    1b26:	4741                	li	a4,16
    1b28:	8478                	sh	a4,8(sp)
    1b2a:	002c                	addi	a1,sp,8
    1b2c:	4741                	li	a4,16
    1b2e:	40011537          	lui	a0,0x40011
    1b32:	c622                	sw	s0,12(sp)
    1b34:	c83a                	sw	a4,16(sp)
    1b36:	5a7000ef          	jal	ra,28dc <GPIO_Init>
    1b3a:	400117b7          	lui	a5,0x40011
    1b3e:	4741                	li	a4,16
    1b40:	002c                	addi	a1,sp,8
    1b42:	40078513          	addi	a0,a5,1024 # 40011400 <__global_pointer$+0x20010bc8>
    1b46:	8464                	sh	s1,8(sp)
    1b48:	c622                	sw	s0,12(sp)
    1b4a:	c83a                	sw	a4,16(sp)
    1b4c:	591000ef          	jal	ra,28dc <GPIO_Init>
    1b50:	02410113          	addi	sp,sp,36
    1b54:	d56ff06f          	j	10aa <__riscv_restore_0>

00001b58 <TIM_INT_Init>:
    1b58:	d48ff2ef          	jal	t0,10a0 <__riscv_save_0>
    1b5c:	1131                	addi	sp,sp,-20
    1b5e:	4585                	li	a1,1
    1b60:	4505                	li	a0,1
    1b62:	c402                	sw	zero,8(sp)
    1b64:	c602                	sw	zero,12(sp)
    1b66:	00011823          	sh	zero,16(sp)
    1b6a:	c002                	sw	zero,0(sp)
    1b6c:	c202                	sw	zero,4(sp)
    1b6e:	765000ef          	jal	ra,2ad2 <RCC_APB1PeriphClockCmd>
    1b72:	47bd                	li	a5,15
    1b74:	c43e                	sw	a5,8(sp)
    1b76:	67bd                	lui	a5,0xf
    1b78:	a5f78793          	addi	a5,a5,-1441 # ea5f <__app_size+0xba5f>
    1b7c:	002c                	addi	a1,sp,8
    1b7e:	40000537          	lui	a0,0x40000
    1b82:	c63e                	sw	a5,12(sp)
    1b84:	7cd000ef          	jal	ra,2b50 <TIM_TimeBaseInit>
    1b88:	4585                	li	a1,1
    1b8a:	40000537          	lui	a0,0x40000
    1b8e:	03a010ef          	jal	ra,2bc8 <TIM_ClearFlag>
    1b92:	04000713          	li	a4,64
    1b96:	e000e7b7          	lui	a5,0xe000e
    1b9a:	28e7a223          	sw	a4,644(a5) # e000e284 <__global_pointer$+0xc000da4c>
    1b9e:	4605                	li	a2,1
    1ba0:	4585                	li	a1,1
    1ba2:	40000537          	lui	a0,0x40000
    1ba6:	010010ef          	jal	ra,2bb6 <TIM_ITConfig>
    1baa:	12600793          	li	a5,294
    1bae:	807c                	sh	a5,0(sp)
    1bb0:	4789                	li	a5,2
    1bb2:	815c                	sb	a5,2(sp)
    1bb4:	850a                	mv	a0,sp
    1bb6:	4785                	li	a5,1
    1bb8:	c23e                	sw	a5,4(sp)
    1bba:	5df000ef          	jal	ra,2998 <NVIC_Init>
    1bbe:	03200513          	li	a0,50
    1bc2:	23a010ef          	jal	ra,2dfc <Delay_Ms>
    1bc6:	4585                	li	a1,1
    1bc8:	40000537          	lui	a0,0x40000
    1bcc:	7d3000ef          	jal	ra,2b9e <TIM_Cmd>
    1bd0:	0151                	addi	sp,sp,20
    1bd2:	cd8ff06f          	j	10aa <__riscv_restore_0>

00001bd6 <USART1_Init>:
    1bd6:	ccaff2ef          	jal	t0,10a0 <__riscv_save_0>
    1bda:	6511                	lui	a0,0x4
    1bdc:	fdc10113          	addi	sp,sp,-36
    1be0:	4585                	li	a1,1
    1be2:	02150513          	addi	a0,a0,33 # 4021 <__app_size+0x1021>
    1be6:	c402                	sw	zero,8(sp)
    1be8:	c602                	sw	zero,12(sp)
    1bea:	c802                	sw	zero,16(sp)
    1bec:	ca02                	sw	zero,20(sp)
    1bee:	cc02                	sw	zero,24(sp)
    1bf0:	ce02                	sw	zero,28(sp)
    1bf2:	d002                	sw	zero,32(sp)
    1bf4:	c002                	sw	zero,0(sp)
    1bf6:	c202                	sw	zero,4(sp)
    1bf8:	6bd000ef          	jal	ra,2ab4 <RCC_APB2PeriphClockCmd>
    1bfc:	400107b7          	lui	a5,0x40010
    1c00:	43d8                	lw	a4,4(a5)
    1c02:	ffe006b7          	lui	a3,0xffe00
    1c06:	16ed                	addi	a3,a3,-5 # ffdffffb <__global_pointer$+0xdfdff7c3>
    1c08:	8f75                	and	a4,a4,a3
    1c0a:	c3d8                	sw	a4,4(a5)
    1c0c:	43d8                	lw	a4,4(a5)
    1c0e:	002006b7          	lui	a3,0x200
    1c12:	40011437          	lui	s0,0x40011
    1c16:	8f55                	or	a4,a4,a3
    1c18:	c3d8                	sw	a4,4(a5)
    1c1a:	04000793          	li	a5,64
    1c1e:	847c                	sh	a5,8(sp)
    1c20:	448d                	li	s1,3
    1c22:	47e1                	li	a5,24
    1c24:	002c                	addi	a1,sp,8
    1c26:	40040513          	addi	a0,s0,1024 # 40011400 <__global_pointer$+0x20010bc8>
    1c2a:	c626                	sw	s1,12(sp)
    1c2c:	c83e                	sw	a5,16(sp)
    1c2e:	4af000ef          	jal	ra,28dc <GPIO_Init>
    1c32:	02000793          	li	a5,32
    1c36:	847c                	sh	a5,8(sp)
    1c38:	002c                	addi	a1,sp,8
    1c3a:	4791                	li	a5,4
    1c3c:	40040513          	addi	a0,s0,1024
    1c40:	c626                	sw	s1,12(sp)
    1c42:	c83e                	sw	a5,16(sp)
    1c44:	499000ef          	jal	ra,28dc <GPIO_Init>
    1c48:	67f1                	lui	a5,0x1c
    1c4a:	40014437          	lui	s0,0x40014
    1c4e:	20078793          	addi	a5,a5,512 # 1c200 <__app_size+0x19200>
    1c52:	ca3e                	sw	a5,20(sp)
    1c54:	084c                	addi	a1,sp,20
    1c56:	000c07b7          	lui	a5,0xc0
    1c5a:	80040513          	addi	a0,s0,-2048 # 40013800 <__global_pointer$+0x20012fc8>
    1c5e:	ce3e                	sw	a5,28(sp)
    1c60:	cc02                	sw	zero,24(sp)
    1c62:	02011023          	sh	zero,32(sp)
    1c66:	793000ef          	jal	ra,2bf8 <USART_Init>
    1c6a:	4605                	li	a2,1
    1c6c:	52500593          	li	a1,1317
    1c70:	80040513          	addi	a0,s0,-2048
    1c74:	066010ef          	jal	ra,2cda <USART_ITConfig>
    1c78:	12000793          	li	a5,288
    1c7c:	807c                	sh	a5,0(sp)
    1c7e:	850a                	mv	a0,sp
    1c80:	4785                	li	a5,1
    1c82:	c23e                	sw	a5,4(sp)
    1c84:	00010123          	sb	zero,2(sp)
    1c88:	511000ef          	jal	ra,2998 <NVIC_Init>
    1c8c:	4585                	li	a1,1
    1c8e:	80040513          	addi	a0,s0,-2048
    1c92:	034010ef          	jal	ra,2cc6 <USART_Cmd>
    1c96:	02410113          	addi	sp,sp,36
    1c9a:	c10ff06f          	j	10aa <__riscv_restore_0>

00001c9e <USART_DMA_TX_Config>:
    1c9e:	c02ff2ef          	jal	t0,10a0 <__riscv_save_0>
    1ca2:	fd410113          	addi	sp,sp,-44
    1ca6:	02c00613          	li	a2,44
    1caa:	4581                	li	a1,0
    1cac:	850a                	mv	a0,sp
    1cae:	cd8ff0ef          	jal	ra,1186 <memset>
    1cb2:	4585                	li	a1,1
    1cb4:	4505                	li	a0,1
    1cb6:	5e1000ef          	jal	ra,2a96 <RCC_AHBPeriphClockCmd>
    1cba:	400204b7          	lui	s1,0x40020
    1cbe:	04448513          	addi	a0,s1,68 # 40020044 <__global_pointer$+0x2001f80c>
    1cc2:	1a9000ef          	jal	ra,266a <DMA_DeInit>
    1cc6:	40014437          	lui	s0,0x40014
    1cca:	80440793          	addi	a5,s0,-2044 # 40013804 <__global_pointer$+0x20012fcc>
    1cce:	c03e                	sw	a5,0(sp)
    1cd0:	a8518793          	addi	a5,gp,-1403 # 200002bd <buffers+0x45>
    1cd4:	c23e                	sw	a5,4(sp)
    1cd6:	47c1                	li	a5,16
    1cd8:	c43e                	sw	a5,8(sp)
    1cda:	04000793          	li	a5,64
    1cde:	c63e                	sw	a5,12(sp)
    1ce0:	08000793          	li	a5,128
    1ce4:	ca3e                	sw	a5,20(sp)
    1ce6:	858a                	mv	a1,sp
    1ce8:	6785                	lui	a5,0x1
    1cea:	04448513          	addi	a0,s1,68
    1cee:	d23e                	sw	a5,36(sp)
    1cf0:	c802                	sw	zero,16(sp)
    1cf2:	cc02                	sw	zero,24(sp)
    1cf4:	ce02                	sw	zero,28(sp)
    1cf6:	d002                	sw	zero,32(sp)
    1cf8:	d402                	sw	zero,40(sp)
    1cfa:	203000ef          	jal	ra,26fc <DMA_Init>
    1cfe:	4605                	li	a2,1
    1d00:	08000593          	li	a1,128
    1d04:	80040513          	addi	a0,s0,-2048
    1d08:	00a010ef          	jal	ra,2d12 <USART_DMACmd>
    1d0c:	02c10113          	addi	sp,sp,44
    1d10:	b9aff06f          	j	10aa <__riscv_restore_0>

00001d14 <SPI1_Init>:
    1d14:	b8cff2ef          	jal	t0,10a0 <__riscv_save_0>
    1d18:	6505                	lui	a0,0x1
    1d1a:	1151                	addi	sp,sp,-12
    1d1c:	4585                	li	a1,1
    1d1e:	0511                	addi	a0,a0,4 # 1004 <__app_offset+0x4>
    1d20:	595000ef          	jal	ra,2ab4 <RCC_APB2PeriphClockCmd>
    1d24:	06000793          	li	a5,96
    1d28:	4461                	li	s0,24
    1d2a:	807c                	sh	a5,0(sp)
    1d2c:	858a                	mv	a1,sp
    1d2e:	478d                	li	a5,3
    1d30:	40011537          	lui	a0,0x40011
    1d34:	c422                	sw	s0,8(sp)
    1d36:	c23e                	sw	a5,4(sp)
    1d38:	3a5000ef          	jal	ra,28dc <GPIO_Init>
    1d3c:	08000793          	li	a5,128
    1d40:	807c                	sh	a5,0(sp)
    1d42:	858a                	mv	a1,sp
    1d44:	4791                	li	a5,4
    1d46:	40011537          	lui	a0,0x40011
    1d4a:	c43e                	sw	a5,8(sp)
    1d4c:	391000ef          	jal	ra,28dc <GPIO_Init>
    1d50:	89818793          	addi	a5,gp,-1896 # 200000d0 <hspi1>
    1d54:	01040737          	lui	a4,0x1040
    1d58:	c3d8                	sw	a4,4(a5)
    1d5a:	89c18593          	addi	a1,gp,-1892 # 200000d4 <hspi1+0x4>
    1d5e:	02000737          	lui	a4,0x2000
    1d62:	40013537          	lui	a0,0x40013
    1d66:	0007a423          	sw	zero,8(a5) # 1008 <__app_offset+0x8>
    1d6a:	c7d8                	sw	a4,12(a5)
    1d6c:	cb80                	sw	s0,16(a5)
    1d6e:	583000ef          	jal	ra,2af0 <SPI_Init>
    1d72:	4585                	li	a1,1
    1d74:	40013537          	lui	a0,0x40013
    1d78:	5ad000ef          	jal	ra,2b24 <SPI_Cmd>
    1d7c:	0131                	addi	sp,sp,12
    1d7e:	b2cff06f          	j	10aa <__riscv_restore_0>

00001d82 <UartSendBuffer>:
    1d82:	b1eff2ef          	jal	t0,10a0 <__riscv_save_0>
    1d86:	84aa                	mv	s1,a0
    1d88:	40020537          	lui	a0,0x40020
    1d8c:	842e                	mv	s0,a1
    1d8e:	04450513          	addi	a0,a0,68 # 40020044 <__global_pointer$+0x2001f80c>
    1d92:	4581                	li	a1,0
    1d94:	1a1000ef          	jal	ra,2734 <DMA_Cmd>
    1d98:	9426                	add	s0,s0,s1
    1d9a:	02848463          	beq	s1,s0,1dc2 <UartSendBuffer+0x40>
    1d9e:	400147b7          	lui	a5,0x40014
    1da2:	80078513          	addi	a0,a5,-2048 # 40013800 <__global_pointer$+0x20012fc8>
    1da6:	08000593          	li	a1,128
    1daa:	78b000ef          	jal	ra,2d34 <USART_GetFlagStatus>
    1dae:	400147b7          	lui	a5,0x40014
    1db2:	d575                	beqz	a0,1d9e <UartSendBuffer+0x1c>
    1db4:	208c                	lbu	a1,0(s1)
    1db6:	80078513          	addi	a0,a5,-2048 # 40013800 <__global_pointer$+0x20012fc8>
    1dba:	0485                	addi	s1,s1,1
    1dbc:	769000ef          	jal	ra,2d24 <USART_SendData>
    1dc0:	bfe9                	j	1d9a <UartSendBuffer+0x18>
    1dc2:	ae8ff06f          	j	10aa <__riscv_restore_0>

00001dc6 <USART1_IRQHandler>:
    1dc6:	1171                	addi	sp,sp,-4
    1dc8:	c022                	sw	s0,0(sp)
    1dca:	40014437          	lui	s0,0x40014
    1dce:	52500593          	li	a1,1317
    1dd2:	80040513          	addi	a0,s0,-2048 # 40013800 <__global_pointer$+0x20012fc8>
    1dd6:	769000ef          	jal	ra,2d3e <USART_GetITStatus>
    1dda:	c92d                	beqz	a0,1e4c <USART1_IRQHandler+0x86>
    1ddc:	80040513          	addi	a0,s0,-2048
    1de0:	74d000ef          	jal	ra,2d2c <USART_ReceiveData>
    1de4:	8951c783          	lbu	a5,-1899(gp) # 200000cd <cntBuffer_UART.3>
    1de8:	a4018693          	addi	a3,gp,-1472 # 20000278 <buffers>
    1dec:	00f68633          	add	a2,a3,a5
    1df0:	0785                	addi	a5,a5,1
    1df2:	0ff57513          	zext.b	a0,a0
    1df6:	0ff7f793          	zext.b	a5,a5
    1dfa:	a208                	sb	a0,0(a2)
    1dfc:	88f18aa3          	sb	a5,-1899(gp) # 200000cd <cntBuffer_UART.3>
    1e00:	0aa00313          	li	t1,170
    1e04:	a4018713          	addi	a4,gp,-1472 # 20000278 <buffers>
    1e08:	00651e63          	bne	a0,t1,1e24 <USART1_IRQHandler+0x5e>
    1e0c:	8941c303          	lbu	t1,-1900(gp) # 200000cc <len_new_rx_data.2>
    1e10:	00031a63          	bnez	t1,1e24 <USART1_IRQHandler+0x5e>
    1e14:	4785                	li	a5,1
    1e16:	04f68123          	sb	a5,66(a3) # 200042 <__app_size+0x1fd042>
    1e1a:	04068023          	sb	zero,64(a3)
    1e1e:	88018a23          	sb	zero,-1900(gp) # 200000cc <len_new_rx_data.2>
    1e22:	a829                	j	1e3c <USART1_IRQHandler+0x76>
    1e24:	04274283          	lbu	t0,66(a4) # 2000042 <__app_size+0x1ffd042>
    1e28:	4305                	li	t1,1
    1e2a:	8941c683          	lbu	a3,-1900(gp) # 200000cc <len_new_rx_data.2>
    1e2e:	02629363          	bne	t0,t1,1e54 <USART1_IRQHandler+0x8e>
    1e32:	e28d                	bnez	a3,1e54 <USART1_IRQHandler+0x8e>
    1e34:	88a18a23          	sb	a0,-1900(gp) # 200000cc <len_new_rx_data.2>
    1e38:	04070123          	sb	zero,66(a4)
    1e3c:	40014537          	lui	a0,0x40014
    1e40:	52500593          	li	a1,1317
    1e44:	80050513          	addi	a0,a0,-2048 # 40013800 <__global_pointer$+0x20012fc8>
    1e48:	733000ef          	jal	ra,2d7a <USART_ClearITPendingBit>
    1e4c:	4402                	lw	s0,0(sp)
    1e4e:	0111                	addi	sp,sp,4
    1e50:	30200073          	mret
    1e54:	0685                	addi	a3,a3,1
    1e56:	fef6d3e3          	bge	a3,a5,1e3c <USART1_IRQHandler+0x76>
    1e5a:	4785                	li	a5,1
    1e5c:	04f70023          	sb	a5,64(a4)
    1e60:	88018aa3          	sb	zero,-1899(gp) # 200000cd <cntBuffer_UART.3>
    1e64:	bf6d                	j	1e1e <USART1_IRQHandler+0x58>

00001e66 <EXTI7_0_IRQHandler>:
    1e66:	4541                	li	a0,16
    1e68:	143000ef          	jal	ra,27aa <EXTI_GetITStatus>
    1e6c:	c501                	beqz	a0,1e74 <EXTI7_0_IRQHandler+0xe>
    1e6e:	4541                	li	a0,16
    1e70:	155000ef          	jal	ra,27c4 <EXTI_ClearITPendingBit>
    1e74:	4521                	li	a0,8
    1e76:	135000ef          	jal	ra,27aa <EXTI_GetITStatus>
    1e7a:	c519                	beqz	a0,1e88 <EXTI7_0_IRQHandler+0x22>
    1e7c:	4705                	li	a4,1
    1e7e:	4521                	li	a0,8
    1e80:	94e18223          	sb	a4,-1724(gp) # 2000017c <radio1+0x18>
    1e84:	141000ef          	jal	ra,27c4 <EXTI_ClearITPendingBit>
    1e88:	4509                	li	a0,2
    1e8a:	121000ef          	jal	ra,27aa <EXTI_GetITStatus>
    1e8e:	c519                	beqz	a0,1e9c <EXTI7_0_IRQHandler+0x36>
    1e90:	4705                	li	a4,1
    1e92:	4509                	li	a0,2
    1e94:	8ce18423          	sb	a4,-1848(gp) # 20000100 <radio2+0x18>
    1e98:	12d000ef          	jal	ra,27c4 <EXTI_ClearITPendingBit>
    1e9c:	30200073          	mret

00001ea0 <TIM2_IRQHandler>:
    1ea0:	1171                	addi	sp,sp,-4
    1ea2:	4585                	li	a1,1
    1ea4:	40000537          	lui	a0,0x40000
    1ea8:	c022                	sw	s0,0(sp)
    1eaa:	52b000ef          	jal	ra,2bd4 <TIM_GetITStatus>
    1eae:	cd39                	beqz	a0,1f0c <TIM2_IRQHandler+0x6c>
    1eb0:	ac818713          	addi	a4,gp,-1336 # 20000300 <device>
    1eb4:	2714                	lbu	a3,8(a4)
    1eb6:	4705                	li	a4,1
    1eb8:	ac818793          	addi	a5,gp,-1336 # 20000300 <device>
    1ebc:	00e69763          	bne	a3,a4,1eca <TIM2_IRQHandler+0x2a>
    1ec0:	8921d683          	lhu	a3,-1902(gp) # 200000ca <cntConnectTimeout.1>
    1ec4:	c299                	beqz	a3,1eca <TIM2_IRQHandler+0x2a>
    1ec6:	88019923          	sh	zero,-1902(gp) # 200000ca <cntConnectTimeout.1>
    1eca:	23f8                	lbu	a4,6(a5)
    1ecc:	4791                	li	a5,4
    1ece:	02f71a63          	bne	a4,a5,1f02 <TIM2_IRQHandler+0x62>
    1ed2:	8901c783          	lbu	a5,-1904(gp) # 200000c8 <cntFailBlink.0>
    1ed6:	470d                	li	a4,3
    1ed8:	0785                	addi	a5,a5,1
    1eda:	0ff7f793          	zext.b	a5,a5
    1ede:	88f18823          	sb	a5,-1904(gp) # 200000c8 <cntFailBlink.0>
    1ee2:	02f77063          	bgeu	a4,a5,1f02 <TIM2_IRQHandler+0x62>
    1ee6:	4585                	li	a1,1
    1ee8:	40011537          	lui	a0,0x40011
    1eec:	267000ef          	jal	ra,2952 <GPIO_ReadOutputDataBit>
    1ef0:	00153613          	seqz	a2,a0
    1ef4:	4585                	li	a1,1
    1ef6:	40011537          	lui	a0,0x40011
    1efa:	26d000ef          	jal	ra,2966 <GPIO_WriteBit>
    1efe:	88018823          	sb	zero,-1904(gp) # 200000c8 <cntFailBlink.0>
    1f02:	4585                	li	a1,1
    1f04:	40000537          	lui	a0,0x40000
    1f08:	4e5000ef          	jal	ra,2bec <TIM_ClearITPendingBit>
    1f0c:	4402                	lw	s0,0(sp)
    1f0e:	0111                	addi	sp,sp,4
    1f10:	30200073          	mret

00001f14 <flash_save_metadata>:
    1f14:	98cff2ef          	jal	t0,10a0 <__riscv_save_0>
    1f18:	842a                	mv	s0,a0
    1f1a:	161000ef          	jal	ra,287a <FLASH_Unlock_Fast>
    1f1e:	03100513          	li	a0,49
    1f22:	0af000ef          	jal	ra,27d0 <FLASH_ClearFlag>
    1f26:	08004537          	lui	a0,0x8004
    1f2a:	fc050513          	addi	a0,a0,-64 # 8003fc0 <__app_size+0x8000fc0>
    1f2e:	179000ef          	jal	ra,28a6 <FLASH_ErasePage_Fast>
    1f32:	0a7000ef          	jal	ra,27d8 <FLASH_GetStatus>
    1f36:	4785                	li	a5,1
    1f38:	fef50de3          	beq	a0,a5,1f32 <flash_save_metadata+0x1e>
    1f3c:	200c                	lbu	a1,0(s0)
    1f3e:	08004537          	lui	a0,0x8004
    1f42:	fc050513          	addi	a0,a0,-64 # 8003fc0 <__app_size+0x8000fc0>
    1f46:	0df000ef          	jal	ra,2824 <FLASH_ProgramWord>
    1f4a:	08f000ef          	jal	ra,27d8 <FLASH_GetStatus>
    1f4e:	4785                	li	a5,1
    1f50:	fef50de3          	beq	a0,a5,1f4a <flash_save_metadata+0x36>
    1f54:	404c                	lw	a1,4(s0)
    1f56:	08004537          	lui	a0,0x8004
    1f5a:	fc450513          	addi	a0,a0,-60 # 8003fc4 <__app_size+0x8000fc4>
    1f5e:	0c7000ef          	jal	ra,2824 <FLASH_ProgramWord>
    1f62:	077000ef          	jal	ra,27d8 <FLASH_GetStatus>
    1f66:	4785                	li	a5,1
    1f68:	fef50de3          	beq	a0,a5,1f62 <flash_save_metadata+0x4e>
    1f6c:	12d000ef          	jal	ra,2898 <FLASH_Lock_Fast>
    1f70:	93aff06f          	j	10aa <__riscv_restore_0>

00001f74 <system_reset_trigger>:
    1f74:	92cff2ef          	jal	t0,10a0 <__riscv_save_0>
    1f78:	800117b7          	lui	a5,0x80011
    1f7c:	baa78793          	addi	a5,a5,-1110 # 80010baa <__global_pointer$+0x60010372>
    1f80:	a4018413          	addi	s0,gp,-1472 # 20000278 <buffers>
    1f84:	a4f1a023          	sw	a5,-1472(gp) # 20000278 <buffers>
    1f88:	10200793          	li	a5,258
    1f8c:	9a818693          	addi	a3,gp,-1624 # 200001e0 <metadata>
    1f90:	a05e                	sh	a5,4(s0)
    1f92:	4789                	li	a5,2
    1f94:	a07c                	sb	a5,6(s0)
    1f96:	42dc                	lw	a5,4(a3)
    1f98:	45a9                	li	a1,10
    1f9a:	0187d613          	srli	a2,a5,0x18
    1f9e:	b070                	sb	a2,7(s0)
    1fa0:	0107d613          	srli	a2,a5,0x10
    1fa4:	a410                	sb	a2,8(s0)
    1fa6:	a4118513          	addi	a0,gp,-1471 # 20000279 <buffers+0x1>
    1faa:	0087d613          	srli	a2,a5,0x8
    1fae:	a43c                	sb	a5,10(s0)
    1fb0:	b410                	sb	a2,9(s0)
    1fb2:	84bff0ef          	jal	ra,17fc <crc16_cal>
    1fb6:	b428                	sb	a0,11(s0)
    1fb8:	8121                	srli	a0,a0,0x8
    1fba:	a448                	sb	a0,12(s0)
    1fbc:	04000593          	li	a1,64
    1fc0:	a4018513          	addi	a0,gp,-1472 # 20000278 <buffers>
    1fc4:	3b7d                	jal	1d82 <UartSendBuffer>
    1fc6:	08800793          	li	a5,136
    1fca:	3007b073          	.4byte	0x3007b073
    1fce:	4785                	li	a5,1
    1fd0:	9a818693          	addi	a3,gp,-1624 # 200001e0 <metadata>
    1fd4:	9a818513          	addi	a0,gp,-1624 # 200001e0 <metadata>
    1fd8:	a29c                	sb	a5,0(a3)
    1fda:	3f2d                	jal	1f14 <flash_save_metadata>
    1fdc:	beef07b7          	lui	a5,0xbeef0
    1fe0:	e000e737          	lui	a4,0xe000e
    1fe4:	08078793          	addi	a5,a5,128 # beef0080 <__global_pointer$+0x9eeef848>
    1fe8:	c73c                	sw	a5,72(a4)
    1fea:	a001                	j	1fea <system_reset_trigger+0x76>

00001fec <main>:
    1fec:	8b4ff2ef          	jal	t0,10a0 <__riscv_save_0>
    1ff0:	fcc10113          	addi	sp,sp,-52
    1ff4:	4505                	li	a0,1
    1ff6:	19d000ef          	jal	ra,2992 <NVIC_PriorityGroupConfig>
    1ffa:	23b1                	jal	2546 <SystemCoreClockUpdate>
    1ffc:	593000ef          	jal	ra,2d8e <Delay_Init>
    2000:	9e3ff0ef          	jal	ra,19e2 <LinkPinout_Init>
    2004:	b55ff0ef          	jal	ra,1b58 <TIM_INT_Init>
    2008:	bcfff0ef          	jal	ra,1bd6 <USART1_Init>
    200c:	3949                	jal	1c9e <USART_DMA_TX_Config>
    200e:	3319                	jal	1d14 <SPI1_Init>
    2010:	ac818793          	addi	a5,gp,-1336 # 20000300 <device>
    2014:	33dc                	lbu	a5,5(a5)
    2016:	ac818413          	addi	s0,gp,-1336 # 20000300 <device>
    201a:	92c18493          	addi	s1,gp,-1748 # 20000164 <radio1>
    201e:	ebd5                	bnez	a5,20d2 <main+0xe6>
    2020:	4605                	li	a2,1
    2022:	4585                	li	a1,1
    2024:	40011537          	lui	a0,0x40011
    2028:	13f000ef          	jal	ra,2966 <GPIO_WriteBit>
    202c:	400117b7          	lui	a5,0x40011
    2030:	40078513          	addi	a0,a5,1024 # 40011400 <__global_pointer$+0x20010bc8>
    2034:	4605                	li	a2,1
    2036:	4585                	li	a1,1
    2038:	12f000ef          	jal	ra,2966 <GPIO_WriteBit>
    203c:	4601                	li	a2,0
    203e:	45a1                	li	a1,8
    2040:	40011537          	lui	a0,0x40011
    2044:	123000ef          	jal	ra,2966 <GPIO_WriteBit>
    2048:	4601                	li	a2,0
    204a:	4591                	li	a1,4
    204c:	40011537          	lui	a0,0x40011
    2050:	117000ef          	jal	ra,2966 <GPIO_WriteBit>
    2054:	4605                	li	a2,1
    2056:	45c1                	li	a1,16
    2058:	40011537          	lui	a0,0x40011
    205c:	10b000ef          	jal	ra,2966 <GPIO_WriteBit>
    2060:	400117b7          	lui	a5,0x40011
    2064:	40078513          	addi	a0,a5,1024 # 40011400 <__global_pointer$+0x20010bc8>
    2068:	4605                	li	a2,1
    206a:	4591                	li	a1,4
    206c:	0fb000ef          	jal	ra,2966 <GPIO_WriteBit>
    2070:	2bc5                	jal	2660 <DBGMCU_GetCHIPID>
    2072:	c008                	sw	a0,0(s0)
    2074:	08004737          	lui	a4,0x8004
    2078:	fc074783          	lbu	a5,-64(a4) # 8003fc0 <__app_size+0x8000fc0>
    207c:	9a818693          	addi	a3,gp,-1624 # 200001e0 <metadata>
    2080:	0ff7f793          	zext.b	a5,a5
    2084:	a29c                	sb	a5,0(a3)
    2086:	fc470713          	addi	a4,a4,-60
    208a:	4318                	lw	a4,0(a4)
    208c:	c2d8                	sw	a4,4(a3)
    208e:	4705                	li	a4,1
    2090:	00e79763          	bne	a5,a4,209e <main+0xb2>
    2094:	9a818513          	addi	a0,gp,-1624 # 200001e0 <metadata>
    2098:	00068023          	sb	zero,0(a3)
    209c:	3da5                	jal	1f14 <flash_save_metadata>
    209e:	00040323          	sb	zero,6(s0)
    20a2:	8b018713          	addi	a4,gp,-1872 # 200000e8 <radio2>
    20a6:	4785                	li	a5,1
    20a8:	00040423          	sb	zero,8(s0)
    20ac:	02072623          	sw	zero,44(a4)
    20b0:	8b018693          	addi	a3,gp,-1872 # 200000e8 <radio2>
    20b4:	577d                	li	a4,-1
    20b6:	a05c                	sb	a5,4(s0)
    20b8:	b05c                	sb	a5,5(s0)
    20ba:	000404a3          	sb	zero,9(s0)
    20be:	0204a623          	sw	zero,44(s1)
    20c2:	00040723          	sb	zero,14(s0)
    20c6:	bc98                	sb	a4,25(s1)
    20c8:	be98                	sb	a4,25(a3)
    20ca:	08800793          	li	a5,136
    20ce:	3007a073          	.4byte	0x3007a073
    20d2:	a4018793          	addi	a5,gp,-1472 # 20000278 <buffers>
    20d6:	0407c703          	lbu	a4,64(a5)
    20da:	4685                	li	a3,1
    20dc:	02d71f63          	bne	a4,a3,211a <main+0x12e>
    20e0:	04078023          	sb	zero,64(a5)
    20e4:	a8418613          	addi	a2,gp,-1404 # 200002bc <buffers+0x44>
    20e8:	9b018593          	addi	a1,gp,-1616 # 200001e8 <data_packets>
    20ec:	a4018513          	addi	a0,gp,-1472 # 20000278 <buffers>
    20f0:	c23a                	sw	a4,4(sp)
    20f2:	f4aff0ef          	jal	ra,183c <UART_decode>
    20f6:	c02a                	sw	a0,0(sp)
    20f8:	04000613          	li	a2,64
    20fc:	a4018513          	addi	a0,gp,-1472 # 20000278 <buffers>
    2100:	4581                	li	a1,0
    2102:	884ff0ef          	jal	ra,1186 <memset>
    2106:	4782                	lw	a5,0(sp)
    2108:	4691                	li	a3,4
    210a:	4712                	lw	a4,4(sp)
    210c:	00d78663          	beq	a5,a3,2118 <main+0x12c>
    2110:	4729                	li	a4,10
    2112:	00e79463          	bne	a5,a4,211a <main+0x12e>
    2116:	3db9                	jal	1f74 <system_reset_trigger>
    2118:	a078                	sb	a4,6(s0)
    211a:	a4018793          	addi	a5,gp,-1472 # 20000278 <buffers>
    211e:	0437c703          	lbu	a4,67(a5)
    2122:	4785                	li	a5,1
    2124:	00f71e63          	bne	a4,a5,2140 <main+0x154>
    2128:	a4018793          	addi	a5,gp,-1472 # 20000278 <buffers>
    212c:	a8118613          	addi	a2,gp,-1407 # 200002b9 <buffers+0x41>
    2130:	9b018593          	addi	a1,gp,-1616 # 200001e8 <data_packets>
    2134:	90518513          	addi	a0,gp,-1787 # 2000013d <radio2+0x55>
    2138:	040781a3          	sb	zero,67(a5)
    213c:	ddcff0ef          	jal	ra,1718 <RF_decode>
    2140:	2c98                	lbu	a4,24(s1)
    2142:	4785                	li	a5,1
    2144:	00f71c63          	bne	a4,a5,215c <main+0x170>
    2148:	92c18513          	addi	a0,gp,-1748 # 20000164 <radio1>
    214c:	956ff0ef          	jal	ra,12a2 <NRF24_HandleIRQ>
    2150:	3c9c                	lbu	a5,25(s1)
    2152:	06f48b23          	sb	a5,118(s1)
    2156:	f0000793          	li	a5,-256
    215a:	ac9e                	sh	a5,24(s1)
    215c:	8b018793          	addi	a5,gp,-1872 # 200000e8 <radio2>
    2160:	2f98                	lbu	a4,24(a5)
    2162:	4785                	li	a5,1
    2164:	02f71263          	bne	a4,a5,2188 <main+0x19c>
    2168:	8b018513          	addi	a0,gp,-1872 # 200000e8 <radio2>
    216c:	936ff0ef          	jal	ra,12a2 <NRF24_HandleIRQ>
    2170:	8b018793          	addi	a5,gp,-1872 # 200000e8 <radio2>
    2174:	3f9c                	lbu	a5,25(a5)
    2176:	8b018693          	addi	a3,gp,-1872 # 200000e8 <radio2>
    217a:	8b018713          	addi	a4,gp,-1872 # 200000e8 <radio2>
    217e:	06f68b23          	sb	a5,118(a3)
    2182:	f0000793          	li	a5,-256
    2186:	af1e                	sh	a5,24(a4)
    2188:	2078                	lbu	a4,6(s0)
    218a:	4305                	li	t1,1
    218c:	0ff77793          	zext.b	a5,a4
    2190:	1a670e63          	beq	a4,t1,234c <main+0x360>
    2194:	4709                	li	a4,2
    2196:	2ae78463          	beq	a5,a4,243e <main+0x452>
    219a:	f2079ce3          	bnez	a5,20d2 <main+0xe6>
    219e:	3e800513          	li	a0,1000
    21a2:	45b000ef          	jal	ra,2dfc <Delay_Ms>
    21a6:	658d                	lui	a1,0x3
    21a8:	4661                	li	a2,24
    21aa:	e4858593          	addi	a1,a1,-440 # 2e48 <strlen+0x12>
    21ae:	0868                	addi	a0,sp,28
    21b0:	f9bfe0ef          	jal	ra,114a <memcpy>
    21b4:	0868                	addi	a0,sp,28
    21b6:	481000ef          	jal	ra,2e36 <strlen>
    21ba:	01051593          	slli	a1,a0,0x10
    21be:	81c1                	srli	a1,a1,0x10
    21c0:	0868                	addi	a0,sp,28
    21c2:	bc1ff0ef          	jal	ra,1d82 <UartSendBuffer>
    21c6:	658d                	lui	a1,0x3
    21c8:	4631                	li	a2,12
    21ca:	e6058593          	addi	a1,a1,-416 # 2e60 <strlen+0x2a>
    21ce:	0808                	addi	a0,sp,16
    21d0:	f7bfe0ef          	jal	ra,114a <memcpy>
    21d4:	0808                	addi	a0,sp,16
    21d6:	461000ef          	jal	ra,2e36 <strlen>
    21da:	01051593          	slli	a1,a0,0x10
    21de:	81c1                	srli	a1,a1,0x10
    21e0:	0808                	addi	a0,sp,16
    21e2:	ba1ff0ef          	jal	ra,1d82 <UartSendBuffer>
    21e6:	4591                	li	a1,4
    21e8:	ac818513          	addi	a0,gp,-1336 # 20000300 <device>
    21ec:	b97ff0ef          	jal	ra,1d82 <UartSendBuffer>
    21f0:	6785                	lui	a5,0x1
    21f2:	a0d78793          	addi	a5,a5,-1523 # a0d <__stack_size+0x90d>
    21f6:	0068                	addi	a0,sp,12
    21f8:	867c                	sh	a5,12(sp)
    21fa:	00010723          	sb	zero,14(sp)
    21fe:	439000ef          	jal	ra,2e36 <strlen>
    2202:	01051593          	slli	a1,a0,0x10
    2206:	81c1                	srli	a1,a1,0x10
    2208:	0068                	addi	a0,sp,12
    220a:	b79ff0ef          	jal	ra,1d82 <UartSendBuffer>
    220e:	47a1                	li	a5,8
    2210:	40011737          	lui	a4,0x40011
    2214:	46c1                	li	a3,16
    2216:	40011637          	lui	a2,0x40011
    221a:	400135b7          	lui	a1,0x40013
    221e:	92c18513          	addi	a0,gp,-1748 # 20000164 <radio1>
    2222:	fbdfe0ef          	jal	ra,11de <NRF24_pin_config>
    2226:	40011637          	lui	a2,0x40011
    222a:	400135b7          	lui	a1,0x40013
    222e:	8b018513          	addi	a0,gp,-1872 # 200000e8 <radio2>
    2232:	4791                	li	a5,4
    2234:	40011737          	lui	a4,0x40011
    2238:	4691                	li	a3,4
    223a:	40060613          	addi	a2,a2,1024 # 40011400 <__global_pointer$+0x20010bc8>
    223e:	fa1fe0ef          	jal	ra,11de <NRF24_pin_config>
    2242:	00b10593          	addi	a1,sp,11
    2246:	92c18513          	addi	a0,gp,-1748 # 20000164 <radio1>
    224a:	000105a3          	sb	zero,11(sp)
    224e:	838ff0ef          	jal	ra,1286 <NRF24_ReadStatus>
    2252:	e901                	bnez	a0,2262 <main+0x276>
    2254:	8598                	lbu	a4,11(sp)
    2256:	47b9                	li	a5,14
    2258:	4305                	li	t1,1
    225a:	0cf70363          	beq	a4,a5,2320 <main+0x334>
    225e:	0064aa23          	sw	t1,20(s1)
    2262:	00b10593          	addi	a1,sp,11
    2266:	8b018513          	addi	a0,gp,-1872 # 200000e8 <radio2>
    226a:	81cff0ef          	jal	ra,1286 <NRF24_ReadStatus>
    226e:	e909                	bnez	a0,2280 <main+0x294>
    2270:	8598                	lbu	a4,11(sp)
    2272:	47b9                	li	a5,14
    2274:	0af70b63          	beq	a4,a5,232a <main+0x33e>
    2278:	4785                	li	a5,1
    227a:	8b018713          	addi	a4,gp,-1872 # 200000e8 <radio2>
    227e:	cb5c                	sw	a5,20(a4)
    2280:	678d                	lui	a5,0x3
    2282:	ebc78793          	addi	a5,a5,-324 # 2ebc <radio_tx_cfg>
    2286:	d0dc                	sw	a5,36(s1)
    2288:	678d                	lui	a5,0x3
    228a:	ea878793          	addi	a5,a5,-344 # 2ea8 <radio_tx_addr>
    228e:	d49c                	sw	a5,40(s1)
    2290:	92c18513          	addi	a0,gp,-1748 # 20000164 <radio1>
    2294:	0204a023          	sw	zero,32(s1)
    2298:	0004ae23          	sw	zero,28(s1)
    229c:	862ff0ef          	jal	ra,12fe <NRF24_init>
    22a0:	548c                	lw	a1,40(s1)
    22a2:	92c18513          	addi	a0,gp,-1748 # 20000164 <radio1>
    22a6:	b44ff0ef          	jal	ra,15ea <NRF24_SetTXAddress>
    22aa:	4705                	li	a4,1
    22ac:	8b018793          	addi	a5,gp,-1872 # 200000e8 <radio2>
    22b0:	d398                	sw	a4,32(a5)
    22b2:	678d                	lui	a5,0x3
    22b4:	8b018613          	addi	a2,gp,-1872 # 200000e8 <radio2>
    22b8:	e9878793          	addi	a5,a5,-360 # 2e98 <radio_rx_cfg>
    22bc:	d25c                	sw	a5,36(a2)
    22be:	678d                	lui	a5,0x3
    22c0:	e8478793          	addi	a5,a5,-380 # 2e84 <radio_rx_addr>
    22c4:	d61c                	sw	a5,40(a2)
    22c6:	87b6                	mv	a5,a3
    22c8:	8b018513          	addi	a0,gp,-1872 # 200000e8 <radio2>
    22cc:	8b018693          	addi	a3,gp,-1872 # 200000e8 <radio2>
    22d0:	ced8                	sw	a4,28(a3)
    22d2:	82cff0ef          	jal	ra,12fe <NRF24_init>
    22d6:	8b018713          	addi	a4,gp,-1872 # 200000e8 <radio2>
    22da:	5710                	lw	a2,40(a4)
    22dc:	8b018513          	addi	a0,gp,-1872 # 200000e8 <radio2>
    22e0:	4581                	li	a1,0
    22e2:	0615                	addi	a2,a2,5
    22e4:	b82ff0ef          	jal	ra,1666 <NRF24_SetRXAddress>
    22e8:	4601                	li	a2,0
    22ea:	4585                	li	a1,1
    22ec:	40011537          	lui	a0,0x40011
    22f0:	676000ef          	jal	ra,2966 <GPIO_WriteBit>
    22f4:	400117b7          	lui	a5,0x40011
    22f8:	4601                	li	a2,0
    22fa:	4585                	li	a1,1
    22fc:	40078513          	addi	a0,a5,1024 # 40011400 <__global_pointer$+0x20010bc8>
    2300:	666000ef          	jal	ra,2966 <GPIO_WriteBit>
    2304:	48d4                	lw	a3,20(s1)
    2306:	4705                	li	a4,1
    2308:	00e68963          	beq	a3,a4,231a <main+0x32e>
    230c:	8b018793          	addi	a5,gp,-1872 # 200000e8 <radio2>
    2310:	4bd4                	lw	a3,20(a5)
    2312:	400117b7          	lui	a5,0x40011
    2316:	02e69363          	bne	a3,a4,233c <main+0x350>
    231a:	4791                	li	a5,4
    231c:	a07c                	sb	a5,6(s0)
    231e:	bb55                	j	20d2 <main+0xe6>
    2320:	0004aa23          	sw	zero,20(s1)
    2324:	0264a623          	sw	t1,44(s1)
    2328:	bf2d                	j	2262 <main+0x276>
    232a:	8b018793          	addi	a5,gp,-1872 # 200000e8 <radio2>
    232e:	0007aa23          	sw	zero,20(a5) # 40011014 <__global_pointer$+0x200107dc>
    2332:	8b018713          	addi	a4,gp,-1872 # 200000e8 <radio2>
    2336:	4785                	li	a5,1
    2338:	d75c                	sw	a5,44(a4)
    233a:	b799                	j	2280 <main+0x294>
    233c:	4605                	li	a2,1
    233e:	4585                	li	a1,1
    2340:	40078513          	addi	a0,a5,1024
    2344:	a078                	sb	a4,6(s0)
    2346:	620000ef          	jal	ra,2966 <GPIO_WriteBit>
    234a:	b361                	j	20d2 <main+0xe6>
    234c:	3478                	lbu	a4,15(s0)
    234e:	02f71963          	bne	a4,a5,2380 <main+0x394>
    2352:	9b018713          	addi	a4,gp,-1616 # 200001e8 <data_packets>
    2356:	50100793          	li	a5,1281
    235a:	a37e                	sh	a5,6(a4)
    235c:	001127b7          	lui	a5,0x112
    2360:	0785                	addi	a5,a5,1 # 112001 <__app_size+0x10f001>
    2362:	98018613          	addi	a2,gp,-1664 # 200001b8 <radio1+0x54>
    2366:	96018593          	addi	a1,gp,-1696 # 20000198 <radio1+0x34>
    236a:	9b018513          	addi	a0,gp,-1616 # 200001e8 <data_packets>
    236e:	c71c                	sw	a5,8(a4)
    2370:	c50ff0ef          	jal	ra,17c0 <RF_encode>
    2374:	92c18513          	addi	a0,gp,-1748 # 20000164 <radio1>
    2378:	91aff0ef          	jal	ra,1492 <NRF24_Send>
    237c:	000407a3          	sb	zero,15(s0)
    2380:	341c                	lbu	a5,9(s0)
    2382:	0ff7f713          	zext.b	a4,a5
    2386:	c791                	beqz	a5,2392 <main+0x3a6>
    2388:	4785                	li	a5,1
    238a:	d4f704e3          	beq	a4,a5,20d2 <main+0xe6>
    238e:	4789                	li	a5,2
    2390:	b771                	j	231c <main+0x330>
    2392:	a4018793          	addi	a5,gp,-1472 # 20000278 <buffers>
    2396:	0447c783          	lbu	a5,68(a5)
    239a:	c38d                	beqz	a5,23bc <main+0x3d0>
    239c:	98018613          	addi	a2,gp,-1664 # 200001b8 <radio1+0x54>
    23a0:	96018593          	addi	a1,gp,-1696 # 20000198 <radio1+0x34>
    23a4:	9b018513          	addi	a0,gp,-1616 # 200001e8 <data_packets>
    23a8:	c18ff0ef          	jal	ra,17c0 <RF_encode>
    23ac:	92c18513          	addi	a0,gp,-1748 # 20000164 <radio1>
    23b0:	8e2ff0ef          	jal	ra,1492 <NRF24_Send>
    23b4:	a4018793          	addi	a5,gp,-1472 # 20000278 <buffers>
    23b8:	04078223          	sb	zero,68(a5)
    23bc:	a4018793          	addi	a5,gp,-1472 # 20000278 <buffers>
    23c0:	0417c783          	lbu	a5,65(a5)
    23c4:	c785                	beqz	a5,23ec <main+0x400>
    23c6:	a4018593          	addi	a1,gp,-1472 # 20000278 <buffers>
    23ca:	9b018513          	addi	a0,gp,-1616 # 200001e8 <data_packets>
    23ce:	d8cff0ef          	jal	ra,195a <UART_encode>
    23d2:	9b018793          	addi	a5,gp,-1616 # 200001e8 <data_packets>
    23d6:	0477c583          	lbu	a1,71(a5)
    23da:	a4018513          	addi	a0,gp,-1472 # 20000278 <buffers>
    23de:	0589                	addi	a1,a1,2 # 40013002 <__global_pointer$+0x200127ca>
    23e0:	9a3ff0ef          	jal	ra,1d82 <UartSendBuffer>
    23e4:	a4018793          	addi	a5,gp,-1472 # 20000278 <buffers>
    23e8:	040780a3          	sb	zero,65(a5)
    23ec:	0784c783          	lbu	a5,120(s1)
    23f0:	c791                	beqz	a5,23fc <main+0x410>
    23f2:	243e                	lhu	a5,10(s0)
    23f4:	06048c23          	sb	zero,120(s1)
    23f8:	0785                	addi	a5,a5,1
    23fa:	a43e                	sh	a5,10(s0)
    23fc:	0794c783          	lbu	a5,121(s1)
    2400:	cf99                	beqz	a5,241e <main+0x432>
    2402:	281e                	lhu	a5,16(s0)
    2404:	06048ca3          	sb	zero,121(s1)
    2408:	4711                	li	a4,4
    240a:	0785                	addi	a5,a5,1
    240c:	07c2                	slli	a5,a5,0x10
    240e:	83c1                	srli	a5,a5,0x10
    2410:	a81e                	sh	a5,16(s0)
    2412:	00f77663          	bgeu	a4,a5,241e <main+0x432>
    2416:	4785                	li	a5,1
    2418:	a47c                	sb	a5,14(s0)
    241a:	4789                	li	a5,2
    241c:	a07c                	sb	a5,6(s0)
    241e:	8b018793          	addi	a5,gp,-1872 # 200000e8 <radio2>
    2422:	0777c783          	lbu	a5,119(a5)
    2426:	ca0786e3          	beqz	a5,20d2 <main+0xe6>
    242a:	8b018513          	addi	a0,gp,-1872 # 200000e8 <radio2>
    242e:	8feff0ef          	jal	ra,152c <NRF24_ReadRXPayload>
    2432:	4785                	li	a5,1
    2434:	a4018713          	addi	a4,gp,-1472 # 20000278 <buffers>
    2438:	04f701a3          	sb	a5,67(a4) # 40011043 <__global_pointer$+0x2001080b>
    243c:	b959                	j	20d2 <main+0xe6>
    243e:	658d                	lui	a1,0x3
    2440:	4655                	li	a2,21
    2442:	e6c58593          	addi	a1,a1,-404 # 2e6c <strlen+0x36>
    2446:	0868                	addi	a0,sp,28
    2448:	d03fe0ef          	jal	ra,114a <memcpy>
    244c:	0868                	addi	a0,sp,28
    244e:	1e9000ef          	jal	ra,2e36 <strlen>
    2452:	01051593          	slli	a1,a0,0x10
    2456:	81c1                	srli	a1,a1,0x10
    2458:	0868                	addi	a0,sp,28
    245a:	929ff0ef          	jal	ra,1d82 <UartSendBuffer>
    245e:	4605                	li	a2,1
    2460:	4585                	li	a1,1
    2462:	40011537          	lui	a0,0x40011
    2466:	2301                	jal	2966 <GPIO_WriteBit>
    2468:	478d                	li	a5,3
    246a:	bd4d                	j	231c <main+0x330>

0000246c <SystemInit>:
    246c:	c35fe2ef          	jal	t0,10a0 <__riscv_save_0>
    2470:	40021437          	lui	s0,0x40021
    2474:	401c                	lw	a5,0(s0)
    2476:	f8ff0737          	lui	a4,0xf8ff0
    247a:	4541                	li	a0,16
    247c:	0017e793          	ori	a5,a5,1
    2480:	c01c                	sw	a5,0(s0)
    2482:	405c                	lw	a5,4(s0)
    2484:	8ff9                	and	a5,a5,a4
    2486:	c05c                	sw	a5,4(s0)
    2488:	401c                	lw	a5,0(s0)
    248a:	fef70737          	lui	a4,0xfef70
    248e:	177d                	addi	a4,a4,-1 # fef6ffff <__global_pointer$+0xdef6f7c7>
    2490:	8ff9                	and	a5,a5,a4
    2492:	c01c                	sw	a5,0(s0)
    2494:	401c                	lw	a5,0(s0)
    2496:	fffc0737          	lui	a4,0xfffc0
    249a:	177d                	addi	a4,a4,-1 # fffbffff <__global_pointer$+0xdffbf7c7>
    249c:	8ff9                	and	a5,a5,a4
    249e:	c01c                	sw	a5,0(s0)
    24a0:	405c                	lw	a5,4(s0)
    24a2:	7741                	lui	a4,0xffff0
    24a4:	177d                	addi	a4,a4,-1 # fffeffff <__global_pointer$+0xdffef7c7>
    24a6:	8ff9                	and	a5,a5,a4
    24a8:	c05c                	sw	a5,4(s0)
    24aa:	009f07b7          	lui	a5,0x9f0
    24ae:	c41c                	sw	a5,8(s0)
    24b0:	2b35                	jal	29ec <RCC_AdjustHSICalibrationValue>
    24b2:	4c1c                	lw	a5,24(s0)
    24b4:	0207e793          	ori	a5,a5,32
    24b8:	cc1c                	sw	a5,24(s0)
    24ba:	400117b7          	lui	a5,0x40011
    24be:	40078793          	addi	a5,a5,1024 # 40011400 <__global_pointer$+0x20010bc8>
    24c2:	4398                	lw	a4,0(a5)
    24c4:	f0f77713          	andi	a4,a4,-241
    24c8:	c398                	sw	a4,0(a5)
    24ca:	4398                	lw	a4,0(a5)
    24cc:	08076713          	ori	a4,a4,128
    24d0:	c398                	sw	a4,0(a5)
    24d2:	4709                	li	a4,2
    24d4:	cb98                	sw	a4,16(a5)
    24d6:	1ffff7b7          	lui	a5,0x1ffff
    24da:	7d47c503          	lbu	a0,2004(a5) # 1ffff7d4 <__app_size+0x1fffc7d4>
    24de:	0ff00793          	li	a5,255
    24e2:	00f50463          	beq	a0,a5,24ea <SystemInit+0x7e>
    24e6:	897d                	andi	a0,a0,31
    24e8:	2311                	jal	29ec <RCC_AdjustHSICalibrationValue>
    24ea:	400227b7          	lui	a5,0x40022
    24ee:	4398                	lw	a4,0(a5)
    24f0:	76c1                	lui	a3,0xffff0
    24f2:	16fd                	addi	a3,a3,-1 # fffeffff <__global_pointer$+0xdffef7c7>
    24f4:	9b71                	andi	a4,a4,-4
    24f6:	c398                	sw	a4,0(a5)
    24f8:	4398                	lw	a4,0(a5)
    24fa:	00176713          	ori	a4,a4,1
    24fe:	c398                	sw	a4,0(a5)
    2500:	400217b7          	lui	a5,0x40021
    2504:	43d8                	lw	a4,4(a5)
    2506:	c3d8                	sw	a4,4(a5)
    2508:	43d8                	lw	a4,4(a5)
    250a:	8f75                	and	a4,a4,a3
    250c:	c3d8                	sw	a4,4(a5)
    250e:	43d8                	lw	a4,4(a5)
    2510:	010006b7          	lui	a3,0x1000
    2514:	c3d8                	sw	a4,4(a5)
    2516:	4398                	lw	a4,0(a5)
    2518:	8f55                	or	a4,a4,a3
    251a:	c398                	sw	a4,0(a5)
    251c:	020006b7          	lui	a3,0x2000
    2520:	4398                	lw	a4,0(a5)
    2522:	8f75                	and	a4,a4,a3
    2524:	df75                	beqz	a4,2520 <SystemInit+0xb4>
    2526:	43d8                	lw	a4,4(a5)
    2528:	400216b7          	lui	a3,0x40021
    252c:	9b71                	andi	a4,a4,-4
    252e:	c3d8                	sw	a4,4(a5)
    2530:	43d8                	lw	a4,4(a5)
    2532:	00276713          	ori	a4,a4,2
    2536:	c3d8                	sw	a4,4(a5)
    2538:	4721                	li	a4,8
    253a:	42dc                	lw	a5,4(a3)
    253c:	8bb1                	andi	a5,a5,12
    253e:	fee79ee3          	bne	a5,a4,253a <SystemInit+0xce>
    2542:	b69fe06f          	j	10aa <__riscv_restore_0>

00002546 <SystemCoreClockUpdate>:
    2546:	40021737          	lui	a4,0x40021
    254a:	435c                	lw	a5,4(a4)
    254c:	46a1                	li	a3,8
    254e:	8bb1                	andi	a5,a5,12
    2550:	04d79463          	bne	a5,a3,2598 <SystemCoreClockUpdate+0x52>
    2554:	435c                	lw	a5,4(a4)
    2556:	02dc7537          	lui	a0,0x2dc7
    255a:	c0050513          	addi	a0,a0,-1024 # 2dc6c00 <__app_size+0x2dc3c00>
    255e:	400216b7          	lui	a3,0x40021
    2562:	42d8                	lw	a4,4(a3)
    2564:	200007b7          	lui	a5,0x20000
    2568:	00078793          	mv	a5,a5
    256c:	8311                	srli	a4,a4,0x4
    256e:	8b3d                	andi	a4,a4,15
    2570:	97ba                	add	a5,a5,a4
    2572:	239c                	lbu	a5,0(a5)
    2574:	42d8                	lw	a4,4(a3)
    2576:	0ff7f593          	zext.b	a1,a5
    257a:	08077713          	andi	a4,a4,128
    257e:	00f557b3          	srl	a5,a0,a5
    2582:	e305                	bnez	a4,25a2 <SystemCoreClockUpdate+0x5c>
    2584:	b1dfe2ef          	jal	t0,10a0 <__riscv_save_0>
    2588:	b4dfe0ef          	jal	ra,10d4 <__hidden___udivsi3>
    258c:	20000737          	lui	a4,0x20000
    2590:	00a72823          	sw	a0,16(a4) # 20000010 <SystemCoreClock>
    2594:	b17fe06f          	j	10aa <__riscv_restore_0>
    2598:	016e3537          	lui	a0,0x16e3
    259c:	60050513          	addi	a0,a0,1536 # 16e3600 <__app_size+0x16e0600>
    25a0:	bf7d                	j	255e <SystemCoreClockUpdate+0x18>
    25a2:	20000737          	lui	a4,0x20000
    25a6:	00f72823          	sw	a5,16(a4) # 20000010 <SystemCoreClock>
    25aa:	8082                	ret

000025ac <ADC1_IRQHandler>:
    25ac:	a001                	j	25ac <ADC1_IRQHandler>

000025ae <handle_reset>:
    25ae:	1fffe197          	auipc	gp,0x1fffe
    25b2:	28a18193          	addi	gp,gp,650 # 20000838 <__global_pointer$>
    25b6:	fc818113          	addi	sp,gp,-56 # 20000800 <_eusrstack>
    25ba:	fffff517          	auipc	a0,0xfffff
    25be:	ae650513          	addi	a0,a0,-1306 # 10a0 <__riscv_save_0>
    25c2:	1fffe597          	auipc	a1,0x1fffe
    25c6:	a3e58593          	addi	a1,a1,-1474 # 20000000 <AHBPrescTable>
    25ca:	1fffe617          	auipc	a2,0x1fffe
    25ce:	a3660613          	addi	a2,a2,-1482 # 20000000 <AHBPrescTable>
    25d2:	00c5fa63          	bgeu	a1,a2,25e6 <handle_reset+0x38>
    25d6:	00052283          	lw	t0,0(a0)
    25da:	0055a023          	sw	t0,0(a1)
    25de:	0511                	addi	a0,a0,4
    25e0:	0591                	addi	a1,a1,4
    25e2:	fec5eae3          	bltu	a1,a2,25d6 <handle_reset+0x28>
    25e6:	00001517          	auipc	a0,0x1
    25ea:	8e650513          	addi	a0,a0,-1818 # 2ecc <_data_lma>
    25ee:	1fffe597          	auipc	a1,0x1fffe
    25f2:	a1258593          	addi	a1,a1,-1518 # 20000000 <AHBPrescTable>
    25f6:	1fffe617          	auipc	a2,0x1fffe
    25fa:	a4260613          	addi	a2,a2,-1470 # 20000038 <packets>
    25fe:	00c5fa63          	bgeu	a1,a2,2612 <handle_reset+0x64>
    2602:	00052283          	lw	t0,0(a0)
    2606:	0055a023          	sw	t0,0(a1)
    260a:	0511                	addi	a0,a0,4
    260c:	0591                	addi	a1,a1,4
    260e:	fec5eae3          	bltu	a1,a2,2602 <handle_reset+0x54>
    2612:	1fffe517          	auipc	a0,0x1fffe
    2616:	a2650513          	addi	a0,a0,-1498 # 20000038 <packets>
    261a:	ae418593          	addi	a1,gp,-1308 # 2000031c <_ebss>
    261e:	00b57763          	bgeu	a0,a1,262c <handle_reset+0x7e>
    2622:	00052023          	sw	zero,0(a0)
    2626:	0511                	addi	a0,a0,4
    2628:	feb56de3          	bltu	a0,a1,2622 <handle_reset+0x74>
    262c:	6289                	lui	t0,0x2
    262e:	88028293          	addi	t0,t0,-1920 # 1880 <UART_decode+0x44>
    2632:	30029073          	.4byte	0x30029073
    2636:	428d                	li	t0,3
    2638:	80429073          	.4byte	0x80429073
    263c:	fffff297          	auipc	t0,0xfffff
    2640:	9c428293          	addi	t0,t0,-1596 # 1000 <__app_offset>
    2644:	0032e293          	ori	t0,t0,3
    2648:	30529073          	.4byte	0x30529073
    264c:	e21ff0ef          	jal	ra,246c <SystemInit>
    2650:	00000297          	auipc	t0,0x0
    2654:	99c28293          	addi	t0,t0,-1636 # 1fec <main>
    2658:	34129073          	.4byte	0x34129073
    265c:	30200073          	mret

00002660 <DBGMCU_GetCHIPID>:
    2660:	1ffff7b7          	lui	a5,0x1ffff
    2664:	7c47a503          	lw	a0,1988(a5) # 1ffff7c4 <__app_size+0x1fffc7c4>
    2668:	8082                	ret

0000266a <DMA_DeInit>:
    266a:	411c                	lw	a5,0(a0)
    266c:	6741                	lui	a4,0x10
    266e:	1779                	addi	a4,a4,-2 # fffe <__app_size+0xcffe>
    2670:	8ff9                	and	a5,a5,a4
    2672:	c11c                	sw	a5,0(a0)
    2674:	00052023          	sw	zero,0(a0)
    2678:	00052223          	sw	zero,4(a0)
    267c:	00052423          	sw	zero,8(a0)
    2680:	400207b7          	lui	a5,0x40020
    2684:	00052623          	sw	zero,12(a0)
    2688:	00878713          	addi	a4,a5,8 # 40020008 <__global_pointer$+0x2001f7d0>
    268c:	00e51763          	bne	a0,a4,269a <DMA_DeInit+0x30>
    2690:	43d8                	lw	a4,4(a5)
    2692:	00f76713          	ori	a4,a4,15
    2696:	c3d8                	sw	a4,4(a5)
    2698:	8082                	ret
    269a:	01c78713          	addi	a4,a5,28
    269e:	00e51663          	bne	a0,a4,26aa <DMA_DeInit+0x40>
    26a2:	43d8                	lw	a4,4(a5)
    26a4:	0f076713          	ori	a4,a4,240
    26a8:	b7fd                	j	2696 <DMA_DeInit+0x2c>
    26aa:	03078713          	addi	a4,a5,48
    26ae:	00e51863          	bne	a0,a4,26be <DMA_DeInit+0x54>
    26b2:	43d8                	lw	a4,4(a5)
    26b4:	6685                	lui	a3,0x1
    26b6:	f0068693          	addi	a3,a3,-256 # f00 <__stack_size+0xe00>
    26ba:	8f55                	or	a4,a4,a3
    26bc:	bfe9                	j	2696 <DMA_DeInit+0x2c>
    26be:	04478713          	addi	a4,a5,68
    26c2:	00e51563          	bne	a0,a4,26cc <DMA_DeInit+0x62>
    26c6:	43d8                	lw	a4,4(a5)
    26c8:	66bd                	lui	a3,0xf
    26ca:	bfc5                	j	26ba <DMA_DeInit+0x50>
    26cc:	05878713          	addi	a4,a5,88
    26d0:	00e51663          	bne	a0,a4,26dc <DMA_DeInit+0x72>
    26d4:	43d8                	lw	a4,4(a5)
    26d6:	000f06b7          	lui	a3,0xf0
    26da:	b7c5                	j	26ba <DMA_DeInit+0x50>
    26dc:	06c78713          	addi	a4,a5,108
    26e0:	00e51663          	bne	a0,a4,26ec <DMA_DeInit+0x82>
    26e4:	43d8                	lw	a4,4(a5)
    26e6:	00f006b7          	lui	a3,0xf00
    26ea:	bfc1                	j	26ba <DMA_DeInit+0x50>
    26ec:	08078713          	addi	a4,a5,128
    26f0:	fae514e3          	bne	a0,a4,2698 <DMA_DeInit+0x2e>
    26f4:	43d8                	lw	a4,4(a5)
    26f6:	0f0006b7          	lui	a3,0xf000
    26fa:	b7c1                	j	26ba <DMA_DeInit+0x50>

000026fc <DMA_Init>:
    26fc:	4118                	lw	a4,0(a0)
    26fe:	77e1                	lui	a5,0xffff8
    2700:	07bd                	addi	a5,a5,15 # ffff800f <__global_pointer$+0xdfff77d7>
    2702:	5194                	lw	a3,32(a1)
    2704:	8f7d                	and	a4,a4,a5
    2706:	459c                	lw	a5,8(a1)
    2708:	8fd5                	or	a5,a5,a3
    270a:	4994                	lw	a3,16(a1)
    270c:	8fd5                	or	a5,a5,a3
    270e:	49d4                	lw	a3,20(a1)
    2710:	8fd5                	or	a5,a5,a3
    2712:	4d94                	lw	a3,24(a1)
    2714:	8fd5                	or	a5,a5,a3
    2716:	4dd4                	lw	a3,28(a1)
    2718:	8fd5                	or	a5,a5,a3
    271a:	51d4                	lw	a3,36(a1)
    271c:	8fd5                	or	a5,a5,a3
    271e:	5594                	lw	a3,40(a1)
    2720:	8fd5                	or	a5,a5,a3
    2722:	8fd9                	or	a5,a5,a4
    2724:	c11c                	sw	a5,0(a0)
    2726:	45dc                	lw	a5,12(a1)
    2728:	c15c                	sw	a5,4(a0)
    272a:	419c                	lw	a5,0(a1)
    272c:	c51c                	sw	a5,8(a0)
    272e:	41dc                	lw	a5,4(a1)
    2730:	c55c                	sw	a5,12(a0)
    2732:	8082                	ret

00002734 <DMA_Cmd>:
    2734:	411c                	lw	a5,0(a0)
    2736:	c589                	beqz	a1,2740 <DMA_Cmd+0xc>
    2738:	0017e793          	ori	a5,a5,1
    273c:	c11c                	sw	a5,0(a0)
    273e:	8082                	ret
    2740:	6741                	lui	a4,0x10
    2742:	1779                	addi	a4,a4,-2 # fffe <__app_size+0xcffe>
    2744:	8ff9                	and	a5,a5,a4
    2746:	bfdd                	j	273c <DMA_Cmd+0x8>

00002748 <EXTI_Init>:
    2748:	4158                	lw	a4,4(a0)
    274a:	410c                	lw	a1,0(a0)
    274c:	4550                	lw	a2,12(a0)
    274e:	400107b7          	lui	a5,0x40010
    2752:	40078793          	addi	a5,a5,1024 # 40010400 <__global_pointer$+0x2000fbc8>
    2756:	973e                	add	a4,a4,a5
    2758:	fff5c693          	not	a3,a1
    275c:	c239                	beqz	a2,27a2 <EXTI_Init+0x5a>
    275e:	4390                	lw	a2,0(a5)
    2760:	8e75                	and	a2,a2,a3
    2762:	c390                	sw	a2,0(a5)
    2764:	43d0                	lw	a2,4(a5)
    2766:	8ef1                	and	a3,a3,a2
    2768:	c3d4                	sw	a3,4(a5)
    276a:	4314                	lw	a3,0(a4)
    276c:	8ecd                	or	a3,a3,a1
    276e:	c314                	sw	a3,0(a4)
    2770:	4118                	lw	a4,0(a0)
    2772:	4790                	lw	a2,8(a5)
    2774:	fff74693          	not	a3,a4
    2778:	8e75                	and	a2,a2,a3
    277a:	c790                	sw	a2,8(a5)
    277c:	47d0                	lw	a2,12(a5)
    277e:	8ef1                	and	a3,a3,a2
    2780:	c7d4                	sw	a3,12(a5)
    2782:	4514                	lw	a3,8(a0)
    2784:	4641                	li	a2,16
    2786:	00c69963          	bne	a3,a2,2798 <EXTI_Init+0x50>
    278a:	4794                	lw	a3,8(a5)
    278c:	8ed9                	or	a3,a3,a4
    278e:	c794                	sw	a3,8(a5)
    2790:	47d4                	lw	a3,12(a5)
    2792:	8f55                	or	a4,a4,a3
    2794:	c7d8                	sw	a4,12(a5)
    2796:	8082                	ret
    2798:	97b6                	add	a5,a5,a3
    279a:	4394                	lw	a3,0(a5)
    279c:	8f55                	or	a4,a4,a3
    279e:	c398                	sw	a4,0(a5)
    27a0:	8082                	ret
    27a2:	431c                	lw	a5,0(a4)
    27a4:	8ff5                	and	a5,a5,a3
    27a6:	c31c                	sw	a5,0(a4)
    27a8:	8082                	ret

000027aa <EXTI_GetITStatus>:
    27aa:	400107b7          	lui	a5,0x40010
    27ae:	40078793          	addi	a5,a5,1024 # 40010400 <__global_pointer$+0x2000fbc8>
    27b2:	4394                	lw	a3,0(a5)
    27b4:	4bdc                	lw	a5,20(a5)
    27b6:	872a                	mv	a4,a0
    27b8:	8d7d                	and	a0,a0,a5
    27ba:	c501                	beqz	a0,27c2 <EXTI_GetITStatus+0x18>
    27bc:	8ef9                	and	a3,a3,a4
    27be:	00d03533          	snez	a0,a3
    27c2:	8082                	ret

000027c4 <EXTI_ClearITPendingBit>:
    27c4:	400107b7          	lui	a5,0x40010
    27c8:	40078793          	addi	a5,a5,1024 # 40010400 <__global_pointer$+0x2000fbc8>
    27cc:	cbc8                	sw	a0,20(a5)
    27ce:	8082                	ret

000027d0 <FLASH_ClearFlag>:
    27d0:	400227b7          	lui	a5,0x40022
    27d4:	c7c8                	sw	a0,12(a5)
    27d6:	8082                	ret

000027d8 <FLASH_GetStatus>:
    27d8:	400227b7          	lui	a5,0x40022
    27dc:	47c8                	lw	a0,12(a5)
    27de:	8905                	andi	a0,a0,1
    27e0:	e511                	bnez	a0,27ec <FLASH_GetStatus+0x14>
    27e2:	47c8                	lw	a0,12(a5)
    27e4:	8941                	andi	a0,a0,16
    27e6:	00153513          	seqz	a0,a0
    27ea:	050d                	addi	a0,a0,3
    27ec:	8082                	ret

000027ee <FLASH_GetBank1Status>:
    27ee:	400227b7          	lui	a5,0x40022
    27f2:	47c8                	lw	a0,12(a5)
    27f4:	8905                	andi	a0,a0,1
    27f6:	e511                	bnez	a0,2802 <FLASH_GetBank1Status+0x14>
    27f8:	47c8                	lw	a0,12(a5)
    27fa:	8941                	andi	a0,a0,16
    27fc:	00153513          	seqz	a0,a0
    2800:	050d                	addi	a0,a0,3
    2802:	8082                	ret

00002804 <FLASH_WaitForLastOperation>:
    2804:	89dfe2ef          	jal	t0,10a0 <__riscv_save_0>
    2808:	842a                	mv	s0,a0
    280a:	37d5                	jal	27ee <FLASH_GetBank1Status>
    280c:	4785                	li	a5,1
    280e:	00f51863          	bne	a0,a5,281e <FLASH_WaitForLastOperation+0x1a>
    2812:	e019                	bnez	s0,2818 <FLASH_WaitForLastOperation+0x14>
    2814:	4515                	li	a0,5
    2816:	a029                	j	2820 <FLASH_WaitForLastOperation+0x1c>
    2818:	3fd9                	jal	27ee <FLASH_GetBank1Status>
    281a:	147d                	addi	s0,s0,-1 # 40020fff <__global_pointer$+0x200207c7>
    281c:	bfc5                	j	280c <FLASH_WaitForLastOperation+0x8>
    281e:	d87d                	beqz	s0,2814 <FLASH_WaitForLastOperation+0x10>
    2820:	88bfe06f          	j	10aa <__riscv_restore_0>

00002824 <FLASH_ProgramWord>:
    2824:	87dfe2ef          	jal	t0,10a0 <__riscv_save_0>
    2828:	1171                	addi	sp,sp,-4
    282a:	84aa                	mv	s1,a0
    282c:	6509                	lui	a0,0x2
    282e:	842e                	mv	s0,a1
    2830:	c002                	sw	zero,0(sp)
    2832:	3fc9                	jal	2804 <FLASH_WaitForLastOperation>
    2834:	4691                	li	a3,4
    2836:	02d51f63          	bne	a0,a3,2874 <FLASH_ProgramWord+0x50>
    283a:	400227b7          	lui	a5,0x40022
    283e:	4b98                	lw	a4,16(a5)
    2840:	6509                	lui	a0,0x2
    2842:	00176713          	ori	a4,a4,1
    2846:	cb98                	sw	a4,16(a5)
    2848:	01041713          	slli	a4,s0,0x10
    284c:	8341                	srli	a4,a4,0x10
    284e:	a09a                	sh	a4,0(s1)
    2850:	3f55                	jal	2804 <FLASH_WaitForLastOperation>
    2852:	4691                	li	a3,4
    2854:	400227b7          	lui	a5,0x40022
    2858:	00d51b63          	bne	a0,a3,286e <FLASH_ProgramWord+0x4a>
    285c:	0489                	addi	s1,s1,2
    285e:	c026                	sw	s1,0(sp)
    2860:	4702                	lw	a4,0(sp)
    2862:	8041                	srli	s0,s0,0x10
    2864:	6509                	lui	a0,0x2
    2866:	a302                	sh	s0,0(a4)
    2868:	3f71                	jal	2804 <FLASH_WaitForLastOperation>
    286a:	400227b7          	lui	a5,0x40022
    286e:	4b98                	lw	a4,16(a5)
    2870:	9b79                	andi	a4,a4,-2
    2872:	cb98                	sw	a4,16(a5)
    2874:	0111                	addi	sp,sp,4
    2876:	835fe06f          	j	10aa <__riscv_restore_0>

0000287a <FLASH_Unlock_Fast>:
    287a:	456706b7          	lui	a3,0x45670
    287e:	400227b7          	lui	a5,0x40022
    2882:	12368693          	addi	a3,a3,291 # 45670123 <__global_pointer$+0x2566f8eb>
    2886:	cdef9737          	lui	a4,0xcdef9
    288a:	c3d4                	sw	a3,4(a5)
    288c:	9ab70713          	addi	a4,a4,-1621 # cdef89ab <__global_pointer$+0xadef8173>
    2890:	c3d8                	sw	a4,4(a5)
    2892:	d3d4                	sw	a3,36(a5)
    2894:	d3d8                	sw	a4,36(a5)
    2896:	8082                	ret

00002898 <FLASH_Lock_Fast>:
    2898:	40022737          	lui	a4,0x40022
    289c:	4b1c                	lw	a5,16(a4)
    289e:	66a1                	lui	a3,0x8
    28a0:	8fd5                	or	a5,a5,a3
    28a2:	cb1c                	sw	a5,16(a4)
    28a4:	8082                	ret

000028a6 <FLASH_ErasePage_Fast>:
    28a6:	f80007b7          	lui	a5,0xf8000
    28aa:	97aa                	add	a5,a5,a0
    28ac:	6711                	lui	a4,0x4
    28ae:	02e7f663          	bgeu	a5,a4,28da <FLASH_ErasePage_Fast+0x34>
    28b2:	400227b7          	lui	a5,0x40022
    28b6:	4b98                	lw	a4,16(a5)
    28b8:	000206b7          	lui	a3,0x20
    28bc:	8f55                	or	a4,a4,a3
    28be:	cb98                	sw	a4,16(a5)
    28c0:	cbc8                	sw	a0,20(a5)
    28c2:	4b98                	lw	a4,16(a5)
    28c4:	04076713          	ori	a4,a4,64
    28c8:	cb98                	sw	a4,16(a5)
    28ca:	47d8                	lw	a4,12(a5)
    28cc:	8b05                	andi	a4,a4,1
    28ce:	ff75                	bnez	a4,28ca <FLASH_ErasePage_Fast+0x24>
    28d0:	4b98                	lw	a4,16(a5)
    28d2:	7681                	lui	a3,0xfffe0
    28d4:	16fd                	addi	a3,a3,-1 # fffdffff <__global_pointer$+0xdffdf7c7>
    28d6:	8f75                	and	a4,a4,a3
    28d8:	cb98                	sw	a4,16(a5)
    28da:	8082                	ret

000028dc <GPIO_Init>:
    28dc:	4594                	lw	a3,8(a1)
    28de:	0106f793          	andi	a5,a3,16
    28e2:	00f6f313          	andi	t1,a3,15
    28e6:	c781                	beqz	a5,28ee <GPIO_Init+0x12>
    28e8:	41dc                	lw	a5,4(a1)
    28ea:	00f36333          	or	t1,t1,a5
    28ee:	0005d283          	lhu	t0,0(a1)
    28f2:	0ff2f793          	zext.b	a5,t0
    28f6:	cfa9                	beqz	a5,2950 <GPIO_Init+0x74>
    28f8:	410c                	lw	a1,0(a0)
    28fa:	1161                	addi	sp,sp,-8
    28fc:	c222                	sw	s0,4(sp)
    28fe:	c026                	sw	s1,0(sp)
    2900:	4781                	li	a5,0
    2902:	02800393          	li	t2,40
    2906:	443d                	li	s0,15
    2908:	04800493          	li	s1,72
    290c:	4705                	li	a4,1
    290e:	00f71733          	sll	a4,a4,a5
    2912:	00e2f633          	and	a2,t0,a4
    2916:	02c71063          	bne	a4,a2,2936 <GPIO_Init+0x5a>
    291a:	02769763          	bne	a3,t2,2948 <GPIO_Init+0x6c>
    291e:	c958                	sw	a4,20(a0)
    2920:	00279613          	slli	a2,a5,0x2
    2924:	00c41733          	sll	a4,s0,a2
    2928:	fff74713          	not	a4,a4
    292c:	8f6d                	and	a4,a4,a1
    292e:	00c31633          	sll	a2,t1,a2
    2932:	00e665b3          	or	a1,a2,a4
    2936:	0785                	addi	a5,a5,1 # 40022001 <__global_pointer$+0x200217c9>
    2938:	4721                	li	a4,8
    293a:	fce799e3          	bne	a5,a4,290c <GPIO_Init+0x30>
    293e:	4412                	lw	s0,4(sp)
    2940:	c10c                	sw	a1,0(a0)
    2942:	4482                	lw	s1,0(sp)
    2944:	0121                	addi	sp,sp,8
    2946:	8082                	ret
    2948:	fc969ce3          	bne	a3,s1,2920 <GPIO_Init+0x44>
    294c:	c918                	sw	a4,16(a0)
    294e:	bfc9                	j	2920 <GPIO_Init+0x44>
    2950:	8082                	ret

00002952 <GPIO_ReadOutputDataBit>:
    2952:	455c                	lw	a5,12(a0)
    2954:	00f5f533          	and	a0,a1,a5
    2958:	00a03533          	snez	a0,a0
    295c:	8082                	ret

0000295e <GPIO_SetBits>:
    295e:	c90c                	sw	a1,16(a0)
    2960:	8082                	ret

00002962 <GPIO_ResetBits>:
    2962:	c94c                	sw	a1,20(a0)
    2964:	8082                	ret

00002966 <GPIO_WriteBit>:
    2966:	c219                	beqz	a2,296c <GPIO_WriteBit+0x6>
    2968:	c90c                	sw	a1,16(a0)
    296a:	8082                	ret
    296c:	c94c                	sw	a1,20(a0)
    296e:	8082                	ret

00002970 <GPIO_EXTILineConfig>:
    2970:	40010737          	lui	a4,0x40010
    2974:	4714                	lw	a3,8(a4)
    2976:	0586                	slli	a1,a1,0x1
    2978:	478d                	li	a5,3
    297a:	00b797b3          	sll	a5,a5,a1
    297e:	fff7c793          	not	a5,a5
    2982:	8ff5                	and	a5,a5,a3
    2984:	c71c                	sw	a5,8(a4)
    2986:	471c                	lw	a5,8(a4)
    2988:	00b51533          	sll	a0,a0,a1
    298c:	8d5d                	or	a0,a0,a5
    298e:	c708                	sw	a0,8(a4)
    2990:	8082                	ret

00002992 <NVIC_PriorityGroupConfig>:
    2992:	aca1ae23          	sw	a0,-1316(gp) # 20000314 <NVIC_Priority_Group>
    2996:	8082                	ret

00002998 <NVIC_Init>:
    2998:	adc1a703          	lw	a4,-1316(gp) # 20000314 <NVIC_Priority_Group>
    299c:	4785                	li	a5,1
    299e:	2114                	lbu	a3,0(a0)
    29a0:	02f71063          	bne	a4,a5,29c0 <NVIC_Init+0x28>
    29a4:	311c                	lbu	a5,1(a0)
    29a6:	02e79c63          	bne	a5,a4,29de <NVIC_Init+0x46>
    29aa:	213c                	lbu	a5,2(a0)
    29ac:	079a                	slli	a5,a5,0x6
    29ae:	f807e793          	ori	a5,a5,-128
    29b2:	e000e737          	lui	a4,0xe000e
    29b6:	0ff7f793          	zext.b	a5,a5
    29ba:	9736                	add	a4,a4,a3
    29bc:	40f70023          	sb	a5,1024(a4) # e000e400 <__global_pointer$+0xc000dbc8>
    29c0:	4705                	li	a4,1
    29c2:	0056d793          	srli	a5,a3,0x5
    29c6:	00d71733          	sll	a4,a4,a3
    29ca:	4154                	lw	a3,4(a0)
    29cc:	ce89                	beqz	a3,29e6 <NVIC_Init+0x4e>
    29ce:	04078793          	addi	a5,a5,64
    29d2:	078a                	slli	a5,a5,0x2
    29d4:	e000e6b7          	lui	a3,0xe000e
    29d8:	97b6                	add	a5,a5,a3
    29da:	c398                	sw	a4,0(a5)
    29dc:	8082                	ret
    29de:	f3ed                	bnez	a5,29c0 <NVIC_Init+0x28>
    29e0:	213c                	lbu	a5,2(a0)
    29e2:	079a                	slli	a5,a5,0x6
    29e4:	b7f9                	j	29b2 <NVIC_Init+0x1a>
    29e6:	06078793          	addi	a5,a5,96
    29ea:	b7e5                	j	29d2 <NVIC_Init+0x3a>

000029ec <RCC_AdjustHSICalibrationValue>:
    29ec:	40021737          	lui	a4,0x40021
    29f0:	431c                	lw	a5,0(a4)
    29f2:	050e                	slli	a0,a0,0x3
    29f4:	f077f793          	andi	a5,a5,-249
    29f8:	8d5d                	or	a0,a0,a5
    29fa:	c308                	sw	a0,0(a4)
    29fc:	8082                	ret

000029fe <RCC_GetClocksFreq>:
    29fe:	ea2fe2ef          	jal	t0,10a0 <__riscv_save_0>
    2a02:	40021737          	lui	a4,0x40021
    2a06:	435c                	lw	a5,4(a4)
    2a08:	46a1                	li	a3,8
    2a0a:	842a                	mv	s0,a0
    2a0c:	8bb1                	andi	a5,a5,12
    2a0e:	06d79f63          	bne	a5,a3,2a8c <RCC_GetClocksFreq+0x8e>
    2a12:	435c                	lw	a5,4(a4)
    2a14:	02dc77b7          	lui	a5,0x2dc7
    2a18:	c0078793          	addi	a5,a5,-1024 # 2dc6c00 <__app_size+0x2dc3c00>
    2a1c:	c01c                	sw	a5,0(s0)
    2a1e:	40021637          	lui	a2,0x40021
    2a22:	4254                	lw	a3,4(a2)
    2a24:	20000737          	lui	a4,0x20000
    2a28:	02870713          	addi	a4,a4,40 # 20000028 <APBAHBPrescTable>
    2a2c:	8291                	srli	a3,a3,0x4
    2a2e:	8abd                	andi	a3,a3,15
    2a30:	9736                	add	a4,a4,a3
    2a32:	2308                	lbu	a0,0(a4)
    2a34:	4258                	lw	a4,4(a2)
    2a36:	0ff57593          	zext.b	a1,a0
    2a3a:	08077713          	andi	a4,a4,128
    2a3e:	00a7d533          	srl	a0,a5,a0
    2a42:	e701                	bnez	a4,2a4a <RCC_GetClocksFreq+0x4c>
    2a44:	853e                	mv	a0,a5
    2a46:	e8efe0ef          	jal	ra,10d4 <__hidden___udivsi3>
    2a4a:	c048                	sw	a0,4(s0)
    2a4c:	c408                	sw	a0,8(s0)
    2a4e:	c448                	sw	a0,12(s0)
    2a50:	400217b7          	lui	a5,0x40021
    2a54:	43dc                	lw	a5,4(a5)
    2a56:	468d                	li	a3,3
    2a58:	83ad                	srli	a5,a5,0xb
    2a5a:	8bfd                	andi	a5,a5,31
    2a5c:	0037d713          	srli	a4,a5,0x3
    2a60:	078a                	slli	a5,a5,0x2
    2a62:	8bf1                	andi	a5,a5,28
    2a64:	8fd9                	or	a5,a5,a4
    2a66:	0137f613          	andi	a2,a5,19
    2a6a:	0037f713          	andi	a4,a5,3
    2a6e:	00c6f463          	bgeu	a3,a2,2a76 <RCC_GetClocksFreq+0x78>
    2a72:	ff478713          	addi	a4,a5,-12 # 40020ff4 <__global_pointer$+0x200207bc>
    2a76:	200007b7          	lui	a5,0x20000
    2a7a:	01478793          	addi	a5,a5,20 # 20000014 <ADCPrescTable>
    2a7e:	97ba                	add	a5,a5,a4
    2a80:	238c                	lbu	a1,0(a5)
    2a82:	e52fe0ef          	jal	ra,10d4 <__hidden___udivsi3>
    2a86:	c808                	sw	a0,16(s0)
    2a88:	e22fe06f          	j	10aa <__riscv_restore_0>
    2a8c:	016e37b7          	lui	a5,0x16e3
    2a90:	60078793          	addi	a5,a5,1536 # 16e3600 <__app_size+0x16e0600>
    2a94:	b761                	j	2a1c <RCC_GetClocksFreq+0x1e>

00002a96 <RCC_AHBPeriphClockCmd>:
    2a96:	c599                	beqz	a1,2aa4 <RCC_AHBPeriphClockCmd+0xe>
    2a98:	40021737          	lui	a4,0x40021
    2a9c:	4b5c                	lw	a5,20(a4)
    2a9e:	8fc9                	or	a5,a5,a0
    2aa0:	cb5c                	sw	a5,20(a4)
    2aa2:	8082                	ret
    2aa4:	400217b7          	lui	a5,0x40021
    2aa8:	4bd8                	lw	a4,20(a5)
    2aaa:	fff54513          	not	a0,a0
    2aae:	8d79                	and	a0,a0,a4
    2ab0:	cbc8                	sw	a0,20(a5)
    2ab2:	8082                	ret

00002ab4 <RCC_APB2PeriphClockCmd>:
    2ab4:	c599                	beqz	a1,2ac2 <RCC_APB2PeriphClockCmd+0xe>
    2ab6:	40021737          	lui	a4,0x40021
    2aba:	4f1c                	lw	a5,24(a4)
    2abc:	8fc9                	or	a5,a5,a0
    2abe:	cf1c                	sw	a5,24(a4)
    2ac0:	8082                	ret
    2ac2:	400217b7          	lui	a5,0x40021
    2ac6:	4f98                	lw	a4,24(a5)
    2ac8:	fff54513          	not	a0,a0
    2acc:	8d79                	and	a0,a0,a4
    2ace:	cf88                	sw	a0,24(a5)
    2ad0:	8082                	ret

00002ad2 <RCC_APB1PeriphClockCmd>:
    2ad2:	c599                	beqz	a1,2ae0 <RCC_APB1PeriphClockCmd+0xe>
    2ad4:	40021737          	lui	a4,0x40021
    2ad8:	4f5c                	lw	a5,28(a4)
    2ada:	8fc9                	or	a5,a5,a0
    2adc:	cf5c                	sw	a5,28(a4)
    2ade:	8082                	ret
    2ae0:	400217b7          	lui	a5,0x40021
    2ae4:	4fd8                	lw	a4,28(a5)
    2ae6:	fff54513          	not	a0,a0
    2aea:	8d79                	and	a0,a0,a4
    2aec:	cfc8                	sw	a0,28(a5)
    2aee:	8082                	ret

00002af0 <SPI_Init>:
    2af0:	211e                	lhu	a5,0(a0)
    2af2:	668d                	lui	a3,0x3
    2af4:	04068693          	addi	a3,a3,64 # 3040 <__app_size+0x40>
    2af8:	00d7f733          	and	a4,a5,a3
    2afc:	21b6                	lhu	a3,2(a1)
    2afe:	219e                	lhu	a5,0(a1)
    2b00:	8fd5                	or	a5,a5,a3
    2b02:	21d6                	lhu	a3,4(a1)
    2b04:	8fd5                	or	a5,a5,a3
    2b06:	21f6                	lhu	a3,6(a1)
    2b08:	8fd5                	or	a5,a5,a3
    2b0a:	2596                	lhu	a3,8(a1)
    2b0c:	8fd5                	or	a5,a5,a3
    2b0e:	25b6                	lhu	a3,10(a1)
    2b10:	8fd5                	or	a5,a5,a3
    2b12:	25d6                	lhu	a3,12(a1)
    2b14:	8fd5                	or	a5,a5,a3
    2b16:	25f6                	lhu	a3,14(a1)
    2b18:	8fd5                	or	a5,a5,a3
    2b1a:	8fd9                	or	a5,a5,a4
    2b1c:	a11e                	sh	a5,0(a0)
    2b1e:	299e                	lhu	a5,16(a1)
    2b20:	a91e                	sh	a5,16(a0)
    2b22:	8082                	ret

00002b24 <SPI_Cmd>:
    2b24:	211e                	lhu	a5,0(a0)
    2b26:	c589                	beqz	a1,2b30 <SPI_Cmd+0xc>
    2b28:	0407e793          	ori	a5,a5,64
    2b2c:	a11e                	sh	a5,0(a0)
    2b2e:	8082                	ret
    2b30:	07c2                	slli	a5,a5,0x10
    2b32:	83c1                	srli	a5,a5,0x10
    2b34:	fbf7f793          	andi	a5,a5,-65
    2b38:	07c2                	slli	a5,a5,0x10
    2b3a:	83c1                	srli	a5,a5,0x10
    2b3c:	bfc5                	j	2b2c <SPI_Cmd+0x8>

00002b3e <SPI_I2S_SendData>:
    2b3e:	a54e                	sh	a1,12(a0)
    2b40:	8082                	ret

00002b42 <SPI_I2S_ReceiveData>:
    2b42:	254a                	lhu	a0,12(a0)
    2b44:	8082                	ret

00002b46 <SPI_I2S_GetFlagStatus>:
    2b46:	250a                	lhu	a0,8(a0)
    2b48:	8d6d                	and	a0,a0,a1
    2b4a:	00a03533          	snez	a0,a0
    2b4e:	8082                	ret

00002b50 <TIM_TimeBaseInit>:
    2b50:	211e                	lhu	a5,0(a0)
    2b52:	40013737          	lui	a4,0x40013
    2b56:	c0070713          	addi	a4,a4,-1024 # 40012c00 <__global_pointer$+0x200123c8>
    2b5a:	07c2                	slli	a5,a5,0x10
    2b5c:	83c1                	srli	a5,a5,0x10
    2b5e:	00e50663          	beq	a0,a4,2b6a <TIM_TimeBaseInit+0x1a>
    2b62:	40000737          	lui	a4,0x40000
    2b66:	00e51663          	bne	a0,a4,2b72 <TIM_TimeBaseInit+0x22>
    2b6a:	21ba                	lhu	a4,2(a1)
    2b6c:	f8f7f793          	andi	a5,a5,-113
    2b70:	8fd9                	or	a5,a5,a4
    2b72:	21fa                	lhu	a4,6(a1)
    2b74:	cff7f793          	andi	a5,a5,-769
    2b78:	07c2                	slli	a5,a5,0x10
    2b7a:	83c1                	srli	a5,a5,0x10
    2b7c:	8fd9                	or	a5,a5,a4
    2b7e:	a11e                	sh	a5,0(a0)
    2b80:	21de                	lhu	a5,4(a1)
    2b82:	b55e                	sh	a5,44(a0)
    2b84:	219e                	lhu	a5,0(a1)
    2b86:	b51e                	sh	a5,40(a0)
    2b88:	400137b7          	lui	a5,0x40013
    2b8c:	c0078793          	addi	a5,a5,-1024 # 40012c00 <__global_pointer$+0x200123c8>
    2b90:	00f51463          	bne	a0,a5,2b98 <TIM_TimeBaseInit+0x48>
    2b94:	259c                	lbu	a5,8(a1)
    2b96:	b91e                	sh	a5,48(a0)
    2b98:	4785                	li	a5,1
    2b9a:	a95e                	sh	a5,20(a0)
    2b9c:	8082                	ret

00002b9e <TIM_Cmd>:
    2b9e:	211e                	lhu	a5,0(a0)
    2ba0:	c589                	beqz	a1,2baa <TIM_Cmd+0xc>
    2ba2:	0017e793          	ori	a5,a5,1
    2ba6:	a11e                	sh	a5,0(a0)
    2ba8:	8082                	ret
    2baa:	07c2                	slli	a5,a5,0x10
    2bac:	83c1                	srli	a5,a5,0x10
    2bae:	9bf9                	andi	a5,a5,-2
    2bb0:	07c2                	slli	a5,a5,0x10
    2bb2:	83c1                	srli	a5,a5,0x10
    2bb4:	bfcd                	j	2ba6 <TIM_Cmd+0x8>

00002bb6 <TIM_ITConfig>:
    2bb6:	255e                	lhu	a5,12(a0)
    2bb8:	c601                	beqz	a2,2bc0 <TIM_ITConfig+0xa>
    2bba:	8fcd                	or	a5,a5,a1
    2bbc:	a55e                	sh	a5,12(a0)
    2bbe:	8082                	ret
    2bc0:	fff5c593          	not	a1,a1
    2bc4:	8fed                	and	a5,a5,a1
    2bc6:	bfdd                	j	2bbc <TIM_ITConfig+0x6>

00002bc8 <TIM_ClearFlag>:
    2bc8:	fff5c593          	not	a1,a1
    2bcc:	05c2                	slli	a1,a1,0x10
    2bce:	81c1                	srli	a1,a1,0x10
    2bd0:	a90e                	sh	a1,16(a0)
    2bd2:	8082                	ret

00002bd4 <TIM_GetITStatus>:
    2bd4:	291e                	lhu	a5,16(a0)
    2bd6:	254a                	lhu	a0,12(a0)
    2bd8:	8fed                	and	a5,a5,a1
    2bda:	0542                	slli	a0,a0,0x10
    2bdc:	8141                	srli	a0,a0,0x10
    2bde:	c789                	beqz	a5,2be8 <TIM_GetITStatus+0x14>
    2be0:	8d6d                	and	a0,a0,a1
    2be2:	00a03533          	snez	a0,a0
    2be6:	8082                	ret
    2be8:	4501                	li	a0,0
    2bea:	8082                	ret

00002bec <TIM_ClearITPendingBit>:
    2bec:	fff5c593          	not	a1,a1
    2bf0:	05c2                	slli	a1,a1,0x10
    2bf2:	81c1                	srli	a1,a1,0x10
    2bf4:	a90e                	sh	a1,16(a0)
    2bf6:	8082                	ret

00002bf8 <USART_Init>:
    2bf8:	ca8fe2ef          	jal	t0,10a0 <__riscv_save_0>
    2bfc:	2916                	lhu	a3,16(a0)
    2bfe:	77f5                	lui	a5,0xffffd
    2c00:	17fd                	addi	a5,a5,-1 # ffffcfff <__global_pointer$+0xdfffc7c7>
    2c02:	8efd                	and	a3,a3,a5
    2c04:	21fe                	lhu	a5,6(a1)
    2c06:	25da                	lhu	a4,12(a1)
    2c08:	1121                	addi	sp,sp,-24
    2c0a:	8fd5                	or	a5,a5,a3
    2c0c:	a91e                	sh	a5,16(a0)
    2c0e:	2556                	lhu	a3,12(a0)
    2c10:	77fd                	lui	a5,0xfffff
    2c12:	9f378793          	addi	a5,a5,-1549 # ffffe9f3 <__global_pointer$+0xdfffe1bb>
    2c16:	8efd                	and	a3,a3,a5
    2c18:	21de                	lhu	a5,4(a1)
    2c1a:	842a                	mv	s0,a0
    2c1c:	84ae                	mv	s1,a1
    2c1e:	8fd5                	or	a5,a5,a3
    2c20:	2596                	lhu	a3,8(a1)
    2c22:	8fd5                	or	a5,a5,a3
    2c24:	25b6                	lhu	a3,10(a1)
    2c26:	8fd5                	or	a5,a5,a3
    2c28:	a55e                	sh	a5,12(a0)
    2c2a:	295e                	lhu	a5,20(a0)
    2c2c:	07c2                	slli	a5,a5,0x10
    2c2e:	83c1                	srli	a5,a5,0x10
    2c30:	cff7f793          	andi	a5,a5,-769
    2c34:	8fd9                	or	a5,a5,a4
    2c36:	a95e                	sh	a5,20(a0)
    2c38:	0048                	addi	a0,sp,4
    2c3a:	dc5ff0ef          	jal	ra,29fe <RCC_GetClocksFreq>
    2c3e:	400147b7          	lui	a5,0x40014
    2c42:	80078793          	addi	a5,a5,-2048 # 40013800 <__global_pointer$+0x20012fc8>
    2c46:	06f41363          	bne	s0,a5,2cac <USART_Init+0xb4>
    2c4a:	47c2                	lw	a5,16(sp)
    2c4c:	00179513          	slli	a0,a5,0x1
    2c50:	245a                	lhu	a4,12(s0)
    2c52:	953e                	add	a0,a0,a5
    2c54:	050e                	slli	a0,a0,0x3
    2c56:	953e                	add	a0,a0,a5
    2c58:	01071793          	slli	a5,a4,0x10
    2c5c:	87c1                	srai	a5,a5,0x10
    2c5e:	408c                	lw	a1,0(s1)
    2c60:	0407d863          	bgez	a5,2cb0 <USART_Init+0xb8>
    2c64:	0586                	slli	a1,a1,0x1
    2c66:	c6efe0ef          	jal	ra,10d4 <__hidden___udivsi3>
    2c6a:	06400593          	li	a1,100
    2c6e:	c02a                	sw	a0,0(sp)
    2c70:	c64fe0ef          	jal	ra,10d4 <__hidden___udivsi3>
    2c74:	4782                	lw	a5,0(sp)
    2c76:	00451493          	slli	s1,a0,0x4
    2c7a:	06400593          	li	a1,100
    2c7e:	853e                	mv	a0,a5
    2c80:	c80fe0ef          	jal	ra,1100 <__umodsi3>
    2c84:	245e                	lhu	a5,12(s0)
    2c86:	07c2                	slli	a5,a5,0x10
    2c88:	87c1                	srai	a5,a5,0x10
    2c8a:	0207d563          	bgez	a5,2cb4 <USART_Init+0xbc>
    2c8e:	050e                	slli	a0,a0,0x3
    2c90:	06400593          	li	a1,100
    2c94:	03250513          	addi	a0,a0,50 # 2032 <main+0x46>
    2c98:	c3cfe0ef          	jal	ra,10d4 <__hidden___udivsi3>
    2c9c:	891d                	andi	a0,a0,7
    2c9e:	8cc9                	or	s1,s1,a0
    2ca0:	04c2                	slli	s1,s1,0x10
    2ca2:	80c1                	srli	s1,s1,0x10
    2ca4:	a406                	sh	s1,8(s0)
    2ca6:	0161                	addi	sp,sp,24
    2ca8:	c02fe06f          	j	10aa <__riscv_restore_0>
    2cac:	47b2                	lw	a5,12(sp)
    2cae:	bf79                	j	2c4c <USART_Init+0x54>
    2cb0:	058a                	slli	a1,a1,0x2
    2cb2:	bf55                	j	2c66 <USART_Init+0x6e>
    2cb4:	0512                	slli	a0,a0,0x4
    2cb6:	06400593          	li	a1,100
    2cba:	03250513          	addi	a0,a0,50
    2cbe:	c16fe0ef          	jal	ra,10d4 <__hidden___udivsi3>
    2cc2:	893d                	andi	a0,a0,15
    2cc4:	bfe9                	j	2c9e <USART_Init+0xa6>

00002cc6 <USART_Cmd>:
    2cc6:	255e                	lhu	a5,12(a0)
    2cc8:	c589                	beqz	a1,2cd2 <USART_Cmd+0xc>
    2cca:	6709                	lui	a4,0x2
    2ccc:	8fd9                	or	a5,a5,a4
    2cce:	a55e                	sh	a5,12(a0)
    2cd0:	8082                	ret
    2cd2:	7779                	lui	a4,0xffffe
    2cd4:	177d                	addi	a4,a4,-1 # ffffdfff <__global_pointer$+0xdfffd7c7>
    2cd6:	8ff9                	and	a5,a5,a4
    2cd8:	bfdd                	j	2cce <USART_Cmd+0x8>

00002cda <USART_ITConfig>:
    2cda:	0ff5f713          	zext.b	a4,a1
    2cde:	4785                	li	a5,1
    2ce0:	8315                	srli	a4,a4,0x5
    2ce2:	00b795b3          	sll	a1,a5,a1
    2ce6:	00f71963          	bne	a4,a5,2cf8 <USART_ITConfig+0x1e>
    2cea:	00c50793          	addi	a5,a0,12
    2cee:	4398                	lw	a4,0(a5)
    2cf0:	ce01                	beqz	a2,2d08 <USART_ITConfig+0x2e>
    2cf2:	8f4d                	or	a4,a4,a1
    2cf4:	c398                	sw	a4,0(a5)
    2cf6:	8082                	ret
    2cf8:	4689                	li	a3,2
    2cfa:	01450793          	addi	a5,a0,20
    2cfe:	fed718e3          	bne	a4,a3,2cee <USART_ITConfig+0x14>
    2d02:	01050793          	addi	a5,a0,16
    2d06:	b7e5                	j	2cee <USART_ITConfig+0x14>
    2d08:	fff5c593          	not	a1,a1
    2d0c:	8df9                	and	a1,a1,a4
    2d0e:	c38c                	sw	a1,0(a5)
    2d10:	8082                	ret

00002d12 <USART_DMACmd>:
    2d12:	295e                	lhu	a5,20(a0)
    2d14:	c601                	beqz	a2,2d1c <USART_DMACmd+0xa>
    2d16:	8fcd                	or	a5,a5,a1
    2d18:	a95e                	sh	a5,20(a0)
    2d1a:	8082                	ret
    2d1c:	fff5c593          	not	a1,a1
    2d20:	8fed                	and	a5,a5,a1
    2d22:	bfdd                	j	2d18 <USART_DMACmd+0x6>

00002d24 <USART_SendData>:
    2d24:	1ff5f593          	andi	a1,a1,511
    2d28:	a14e                	sh	a1,4(a0)
    2d2a:	8082                	ret

00002d2c <USART_ReceiveData>:
    2d2c:	214a                	lhu	a0,4(a0)
    2d2e:	1ff57513          	andi	a0,a0,511
    2d32:	8082                	ret

00002d34 <USART_GetFlagStatus>:
    2d34:	210a                	lhu	a0,0(a0)
    2d36:	8d6d                	and	a0,a0,a1
    2d38:	00a03533          	snez	a0,a0
    2d3c:	8082                	ret

00002d3e <USART_GetITStatus>:
    2d3e:	0ff5f713          	zext.b	a4,a1
    2d42:	4685                	li	a3,1
    2d44:	8315                	srli	a4,a4,0x5
    2d46:	87aa                	mv	a5,a0
    2d48:	00b69533          	sll	a0,a3,a1
    2d4c:	02d71063          	bne	a4,a3,2d6c <USART_GetITStatus+0x2e>
    2d50:	27da                	lhu	a4,12(a5)
    2d52:	239e                	lhu	a5,0(a5)
    2d54:	8d79                	and	a0,a0,a4
    2d56:	07c2                	slli	a5,a5,0x10
    2d58:	83c1                	srli	a5,a5,0x10
    2d5a:	c901                	beqz	a0,2d6a <USART_GetITStatus+0x2c>
    2d5c:	81a1                	srli	a1,a1,0x8
    2d5e:	4705                	li	a4,1
    2d60:	00b71733          	sll	a4,a4,a1
    2d64:	8ff9                	and	a5,a5,a4
    2d66:	00f03533          	snez	a0,a5
    2d6a:	8082                	ret
    2d6c:	4689                	li	a3,2
    2d6e:	00d71463          	bne	a4,a3,2d76 <USART_GetITStatus+0x38>
    2d72:	2b9a                	lhu	a4,16(a5)
    2d74:	bff9                	j	2d52 <USART_GetITStatus+0x14>
    2d76:	2bda                	lhu	a4,20(a5)
    2d78:	bfe9                	j	2d52 <USART_GetITStatus+0x14>

00002d7a <USART_ClearITPendingBit>:
    2d7a:	81a1                	srli	a1,a1,0x8
    2d7c:	4785                	li	a5,1
    2d7e:	00b797b3          	sll	a5,a5,a1
    2d82:	fff7c793          	not	a5,a5
    2d86:	07c2                	slli	a5,a5,0x10
    2d88:	83c1                	srli	a5,a5,0x10
    2d8a:	a11e                	sh	a5,0(a0)
    2d8c:	8082                	ret

00002d8e <Delay_Init>:
    2d8e:	b12fe2ef          	jal	t0,10a0 <__riscv_save_0>
    2d92:	200007b7          	lui	a5,0x20000
    2d96:	0107a503          	lw	a0,16(a5) # 20000010 <SystemCoreClock>
    2d9a:	007a15b7          	lui	a1,0x7a1
    2d9e:	20058593          	addi	a1,a1,512 # 7a1200 <__app_size+0x79e200>
    2da2:	b32fe0ef          	jal	ra,10d4 <__hidden___udivsi3>
    2da6:	0ff57513          	zext.b	a0,a0
    2daa:	aea18123          	sb	a0,-1310(gp) # 2000031a <p_us>
    2dae:	00551793          	slli	a5,a0,0x5
    2db2:	8f89                	sub	a5,a5,a0
    2db4:	078a                	slli	a5,a5,0x2
    2db6:	953e                	add	a0,a0,a5
    2db8:	050e                	slli	a0,a0,0x3
    2dba:	aea19023          	sh	a0,-1312(gp) # 20000318 <p_ms>
    2dbe:	aecfe06f          	j	10aa <__riscv_restore_0>

00002dc2 <Delay_Us>:
    2dc2:	adefe2ef          	jal	t0,10a0 <__riscv_save_0>
    2dc6:	e000f437          	lui	s0,0xe000f
    2dca:	405c                	lw	a5,4(s0)
    2dcc:	85aa                	mv	a1,a0
    2dce:	9bf9                	andi	a5,a5,-2
    2dd0:	c05c                	sw	a5,4(s0)
    2dd2:	ae21c503          	lbu	a0,-1310(gp) # 2000031a <p_us>
    2dd6:	adefe0ef          	jal	ra,10b4 <__mulsi3>
    2dda:	c808                	sw	a0,16(s0)
    2ddc:	00042423          	sw	zero,8(s0) # e000f008 <__global_pointer$+0xc000e7d0>
    2de0:	401c                	lw	a5,0(s0)
    2de2:	0017e793          	ori	a5,a5,1
    2de6:	c01c                	sw	a5,0(s0)
    2de8:	e000f7b7          	lui	a5,0xe000f
    2dec:	43d8                	lw	a4,4(a5)
    2dee:	8b05                	andi	a4,a4,1
    2df0:	df75                	beqz	a4,2dec <Delay_Us+0x2a>
    2df2:	4398                	lw	a4,0(a5)
    2df4:	9b79                	andi	a4,a4,-2
    2df6:	c398                	sw	a4,0(a5)
    2df8:	ab2fe06f          	j	10aa <__riscv_restore_0>

00002dfc <Delay_Ms>:
    2dfc:	aa4fe2ef          	jal	t0,10a0 <__riscv_save_0>
    2e00:	e000f437          	lui	s0,0xe000f
    2e04:	405c                	lw	a5,4(s0)
    2e06:	85aa                	mv	a1,a0
    2e08:	9bf9                	andi	a5,a5,-2
    2e0a:	c05c                	sw	a5,4(s0)
    2e0c:	ae01d503          	lhu	a0,-1312(gp) # 20000318 <p_ms>
    2e10:	aa4fe0ef          	jal	ra,10b4 <__mulsi3>
    2e14:	c808                	sw	a0,16(s0)
    2e16:	00042423          	sw	zero,8(s0) # e000f008 <__global_pointer$+0xc000e7d0>
    2e1a:	401c                	lw	a5,0(s0)
    2e1c:	0017e793          	ori	a5,a5,1
    2e20:	c01c                	sw	a5,0(s0)
    2e22:	e000f7b7          	lui	a5,0xe000f
    2e26:	43d8                	lw	a4,4(a5)
    2e28:	8b05                	andi	a4,a4,1
    2e2a:	df75                	beqz	a4,2e26 <Delay_Ms+0x2a>
    2e2c:	4398                	lw	a4,0(a5)
    2e2e:	9b79                	andi	a4,a4,-2
    2e30:	c398                	sw	a4,0(a5)
    2e32:	a78fe06f          	j	10aa <__riscv_restore_0>

00002e36 <strlen>:
    2e36:	87aa                	mv	a5,a0
    2e38:	2398                	lbu	a4,0(a5)
    2e3a:	0785                	addi	a5,a5,1 # e000f001 <__global_pointer$+0xc000e7c9>
    2e3c:	ff75                	bnez	a4,2e38 <strlen+0x2>
    2e3e:	40a78533          	sub	a0,a5,a0
    2e42:	157d                	addi	a0,a0,-1
    2e44:	8082                	ret
    2e46:	0000                	unimp
    2e48:	2d2d                	jal	3482 <__app_size+0x482>
    2e4a:	2d2d                	jal	3484 <__app_size+0x484>
    2e4c:	202d                	jal	2e76 <strlen+0x40>
    2e4e:	4d41                	li	s10,16
    2e50:	4c204e4f          	.4byte	0x4c204e4f
    2e54:	6e69                	lui	t3,0x1a
    2e56:	2d2d206b          	.4byte	0x2d2d206b
    2e5a:	2d2d                	jal	3494 <__app_size+0x494>
    2e5c:	0d2d                	addi	s10,s10,11
    2e5e:	000a                	c.slli	zero,0x2
    2e60:	6544                	.2byte	0x6544
    2e62:	6976                	.2byte	0x6976
    2e64:	49206563          	bltu	zero,s2,32ee <__app_size+0x2ee>
    2e68:	3a44                	lbu	s1,21(a2)
    2e6a:	0020                	addi	s0,sp,8
    2e6c:	6e6e6f43          	.4byte	0x6e6e6f43
    2e70:	6365                	lui	t1,0x19
    2e72:	6974                	.2byte	0x6974
    2e74:	46206e6f          	jal	t3,92d6 <__app_size+0x62d6>
    2e78:	4941                	li	s2,16
    2e7a:	454c                	lw	a1,12(a0)
    2e7c:	2144                	lbu	s1,4(a0)
    2e7e:	0a0d                	addi	s4,s4,3
    2e80:	0000                	unimp
	...

00002e84 <radio_rx_addr>:
    2e84:	0000 0000 c200 55a1 0112 0000 0000 0000     .......U........
    2e94:	0000 0000                                   ....

00002e98 <radio_rx_cfg>:
    2e98:	0364 0101 0000 0000 0000 0000 0001 0000     d...............

00002ea8 <radio_tx_addr>:
    2ea8:	b2d4 78aa 0050 0000 0000 0000 0000 0000     ...xP...........
    2eb8:	0000 0000                                   ....

00002ebc <radio_tx_cfg>:
    2ebc:	0346 0101 000f 00d0 0000 0000 0000 0000     F...............
